(lp0
(dp1
S'organization'
p2
S'University of North Carolina;University of North Carolina Chapel Hill'
p3
sS'journal'
p4
S'SCHIZOPHRENIA RESEARCH'
p5
sS'author'
p6
S'Penn, David L.'
p7
sS'year'
p8
I2011
sS'address'
p9
S'Univ N Carolina Chapel Hill, Dept Psychol, Chapel Hill, NC 27515 USA.'
p10
sa(dp11
g2
S'Dana-Farber Cancer Institute;Harvard University;VA Boston Healthcare System'
p12
sg4
S'PLOS ONE'
p13
sg6
S'Viswanath, Kasisomayajula'
p14
sg8
I2011
sg9
S'Dana Farber Canc Inst, Ctr Community Based Res, Boston, MA 02115 USA.'
p15
sa(dp16
g2
S''
p17
sg4
S'ECOLOGICAL ECONOMICS'
p18
sg6
S'Wu, Xiaoyu'
p19
sg8
I2011
sg9
S'505 Ramapo Valley Rd, Mahwah, NJ 07430 USA.'
p20
sa(dp21
g2
S'University of Michigan;University of Michigan System'
p22
sg4
S'AMERICAN JOURNAL OF EPIDEMIOLOGY'
p23
sg6
S'Hajat, Anjum'
p24
sg8
I2011
sg9
S'Univ Michigan, Sch Publ Hlth, Ctr Social Epidemiol & Populat Hlth, Dept Epidemiol, 109 Observ St,Room 3622,3rd Floor Tower, Ann Arbor, MI 48109 USA.'
p25
sa(dp26
g2
S'University of California San Diego;University of California System'
p27
sg4
S'DRUG AND ALCOHOL DEPENDENCE'
p28
sg6
S'Wagner, Karla D.'
p29
sg8
I2011
sg9
S'Univ Calif San Diego, Dept Med, Div Global Publ Hlth, 9500 Gilman Dr,MC 0507, La Jolla, CA 92093 USA.'
p30
sa(dp31
g2
S'Harvard University'
p32
sg4
S'SCIENCE'
p33
sg6
S'Michel, Jean-Baptiste'
p34
sg8
I2011
sg9
S'Harvard Univ, Program Evolutionary Dynam, Cambridge, MA 02138 USA.'
p35
sa(dp36
g2
S'Duke University'
p37
sg4
S'JOURNAL OF THE AMERICAN COLLEGE OF CARDIOLOGY'
p38
sg6
S'Mehta, Rajendra H.'
p39
sg8
I2011
sg9
S'Duke Clin Res Inst, Box 17969, Durham, NC 27715 USA.'
p40
sa(dp41
g2
S'University of Toledo'
p42
sg4
S'PLOS ONE'
p43
sg6
S'Ali, Mir M.'
p44
sg8
I2011
sg9
S'Univ Toledo, Dept Econ, 2801 W Bancroft St, Toledo, OH 43606 USA.'
p45
sa(dp46
g2
S'Illinois State University'
p47
sg4
S'RESEARCH IN SOCIAL STRATIFICATION AND MOBILITY'
p48
sg6
S'Brown, David K.'
p49
sg8
I2011
sg9
S'Illinois State Univ, Dept Sociol & Anthropol, Campus Box 4660,Schroeder Hall 332, Normal, IL 61761 USA.'
p50
sa(dp51
g2
S'Kansas City University of Medicine & Biosciences'
p52
sg4
S'STUDIES IN SYMBOLIC INTERACTION, VOL 37'
p53
sg6
S'Wasserman, Jason Adam'
p54
sg8
I2011
sg9
S'Kansas City Univ Med & Biosci, Dept Bioeth, Kansas City, MO USA.'
p55
sa(dp56
g2
S'Harvard University'
p57
sg4
S'COMPARING EUROPEAN WORKERS PT B: POLICIES AND INSTITUTIONS, VOL 22, PT 2'
p58
sg6
S'Daniel, Caitlin'
p59
sg8
I2011
sg9
S'Harvard Univ, Cambridge, MA 02138 USA.'
p60
sa(dp61
g2
S'SUNY New Paltz;State University of New York (SUNY) System'
p62
sg4
S'SOCIOLOGY OF DIAGNOSIS'
p63
sg6
S'Bryant, Karl'
p64
sg8
I2011
sg9
S'SUNY Coll New Paltz, Dept Sociol, New Paltz, NY USA.'
p65
sa(dp66
g2
S'City University of New York (CUNY) System;Hunter College (CUNY)'
p67
sg4
S'SOCIOLOGY OF DIAGNOSIS'
p68
sg6
S'DeGloma, Thomas'
p69
sg8
I2011
sg9
S'CUNY Hunter Coll, Dept Sociol, New York, NY 10021 USA.'
p70
sa(dp71
g2
S'James Madison University'
p72
sg4
S'SOCIOLOGY OF DIAGNOSIS'
p73
sg6
S'Dobransky, Kerry'
p74
sg8
I2011
sg9
S'James Madison Univ, Dept Sociol & Anthropol, Harrisonburg, VA 22807 USA.'
p75
sa(dp76
g2
S'University of Illinois Chicago;University of Illinois Chicago Hospital;University of Illinois System'
p77
sg4
S'SOCIOLOGY OF DIAGNOSIS'
p78
sg6
S'Davis, Georgiann'
p79
sg8
I2011
sg9
S'Univ Illinois, Dept Sociol, Chicago, IL 60680 USA.'
p80
sa(dp81
g2
g17
sg4
S'SOCIOLOGY OF DIAGNOSIS'
p82
sg6
S'Fuller, Paul C.'
p83
sg8
I2011
sg9
S'St John Fisher Coll, Dept Sociol, Rochester, NY 14618 USA.'
p84
sa(dp85
g2
S'Georgia Institute of Technology;University System of Georgia'
p86
sg4
S'SOCIOLOGY OF DIAGNOSIS'
p87
sg6
S'Singh, Jennifer S.'
p88
sg8
I2011
sg9
S'Georgia Inst Technol, Sch Hist Technol & Soc, Atlanta, GA 30332 USA.'
p89
sa(dp90
g2
S'University of Michigan;University of Michigan System'
p91
sg4
S'SOCIOLOGY OF DIAGNOSIS'
p92
sg6
S'Bringewatt, Elizabeth H.'
p93
sg8
I2011
sg9
S'Univ Michigan, Dept Sociol, Ann Arbor, MI 48109 USA.'
p94
sa(dp95
g2
S'University of Minnesota System;University of Minnesota Twin Cities'
p96
sg4
S'SOCIOLOGY OF DIAGNOSIS'
p97
sg6
S'Whetstone, Sarah'
p98
sg8
I2011
sg9
S'Univ Minnesota, Dept Sociol, Minneapolis, MN 55455 USA.'
p99
sa(dp100
g2
S'University of Michigan;University of Michigan System'
p101
sg4
S'SOCIOLOGY OF DIAGNOSIS'
p102
sg6
S'McGann, P. J.'
p103
sg8
I2011
sg9
S'Univ Michigan, Dept Sociol, Ann Arbor, MI 48109 USA.'
p104
sa(dp105
g2
S'Cleveland State University'
p106
sg4
S'WELL-BEING, PEER CULTURES AND RIGHTS OF CHILDREN'
p107
sg6
S'Matthews, Sarah H.'
p108
sg8
I2011
sg9
S'Cleveland State Univ, Dept Sociol, Cleveland, OH 44115 USA.'
p109
sa(dp110
g2
S'Florida State University;Florida State University System'
p111
sg4
S'VITALITY OF CRITICAL THEORY'
p112
sg6
S'Dahms, Harry F.'
p113
sg8
I2011
sg9
S'Florida State Univ, Coll Social Sci, Tallahassee, FL 32306 USA.'
p114
sa(dp115
g2
S'University of Colorado Boulder;University of Colorado System'
p116
sg4
S'CULTIVATING FOOD JUSTICE: RACE, CLASS, AND SUSTAINABILITY'
p117
sg6
S'DuPuis, E. Melanie'
p118
sg8
I2011
sg9
S'[ 1 ] Univ Colorado, Boulder, CO 80309 USA'
p119
sa(dp120
g2
S'University of Illinois System;University of Illinois Urbana-Champaign'
p121
sg4
S'BLUE RIBBON PAPERS: INTERACTIONISM: THE EMERGING LANDSCAPE'
p122
sg6
S'Wiley, Norbert'
p123
sg8
I2011
sg9
S'Univ Illinois, Dept Sociol, 326 Lincoln Hall, Urbana, IL 61801 USA.'
p124
sa(dp125
g2
S'Edith Cowan University'
p126
sg4
S'COVERT RACISM: THEORIES, INSTITUTIONS, AND EXPERIENCES'
p127
sg6
S'Chivers, Sarah'
p128
sg8
I2011
sg9
S'Edith Cowan Univ, Grad Res Sch, Churchlands, WA 6018, Australia.'
p129
sa(dp130
g2
S'Northern Arizona University'
p131
sg4
S'SOCIOLOGY OF COMMUNITY CONNECTIONS, SECOND EDITION'
p132
sg6
S'Bruhn, John G.'
p133
sg8
I2011
sg9
S'No Arizona Univ, Dept Sociol, Flagstaff, AZ 86011 USA.'
p134
sa(dp135
g2
S'University of California San Francisco;University of California System'
p136
sg4
S'AMERICAN JOURNAL OF PUBLIC HEALTH'
p137
sg6
S'Braveman, Paula A.'
p138
sg8
I2011
sg9
S'Univ Calif San Francisco, Ctr Social Dispar Hlth, 3333 Calif St,Suite 365, San Francisco, CA 94118 USA.'
p139
sa(dp140
g2
S'University of Utah;Utah System of Higher Education'
p141
sg4
S'HUMAN DEVELOPMENT'
p142
sg6
S'Wainryb, Cecilia'
p143
sg8
I2011
sg9
S'Univ Utah, Dept Psychol, 380 South,1530 East, Salt Lake City, UT 84112 USA.'
p144
sa(dp145
g2
g17
sg4
S'HUMAN DEVELOPMENT'
p146
sg6
S'Vianna, Eduardo'
p147
sg8
I2011
sg9
S'LaGuardia Community Coll, Dept Social Sci, 31-10 Thomson Ave, Long Isl City, NY 11101 USA.'
p148
sa(dp149
g2
S'Utah State University;Utah System of Higher Education'
p150
sg4
S'JOURNAL OF COMPARATIVE FAMILY STUDIES'
p151
sg6
S'Lee, Chien-Ti'
p152
sg8
I2011
sg9
S'Utah State Univ, Dept Family & Human Dev, 2905 Old Main Hill, Logan, UT 84322 USA.'
p153
sa(dp154
g2
S'Rensselaer Polytechnic Institute'
p155
sg4
S'KYBERNETES'
p156
sg6
S'Eglash, Ron'
p157
sg8
I2011
sg9
S'Rensselaer Polytech Inst, Troy, NY 12181 USA.'
p158
sa(dp159
g2
S'Harvard University'
p160
sg4
S'ANNUAL REVIEW OF SOCIOLOGY, VOL 37'
p161
sg6
S'Wilson, William Julius'
p162
sg8
I2011
sg9
S'Harvard Univ, Kennedy Sch, Cambridge, MA 02138 USA.'
p163
sa(dp164
g2
S'University of California Davis;University of California System'
p165
sg4
S'ANNUAL REVIEW OF SOCIOLOGY, VOL 37'
p166
sg6
S'Grattet, Ryken'
p167
sg8
I2011
sg9
S'Univ Calif Davis, Dept Sociol, Davis, CA 95616 USA.'
p168
sa(dp169
g2
S'Pennsylvania Commonwealth System of Higher Education (PCSHE);Temple University'
p170
sg4
S'ANNUAL REVIEW OF SOCIOLOGY, VOL 37'
p171
sg6
S'Wray, Matt'
p172
sg8
I2011
sg9
S'Temple Univ, Dept Sociol, Philadelphia, PA 19122 USA.'
p173
sa(dp174
g2
S'Oregon State University;Oregon University System'
p175
sg4
S'HANDBOOK OF SOCIOLOGY OF AGING'
p176
sg6
S'Settersten, Richard A., Jr.'
p177
sg8
I2011
sg9
S'Oregon State Univ, Dept Human Dev & Family Sci, Corvallis, OR 97331 USA.'
p178
sa(dp179
g2
S'University of North Carolina;University of North Carolina Chapel Hill'
p180
sg4
S'HANDBOOK OF SOCIOLOGY OF AGING'
p181
sg6
S'Marshall, Victor W.'
p182
sg8
I2011
sg9
S'Univ N Carolina, Dept Sociol, Chapel Hill, NC 27515 USA.'
p183
sa(dp184
g2
S'University of Southern California'
p185
sg4
S'HANDBOOK OF SOCIOLOGY OF AGING'
p186
sg6
S'Bengtson, Vern L.'
p187
sg8
I2011
sg9
S'Univ So Calif, Sch Gerontol, Los Angeles, CA 90089 USA.'
p188
sa(dp189
g2
S'University of Vermont'
p190
sg4
S'HANDBOOK OF SOCIOLOGY OF AGING'
p191
sg6
S'Cutler, Stephen J.'
p192
sg8
I2011
sg9
S'Univ Vermont, Dept Sociol, Burlington, VT 05405 USA.'
p193
sa(dp194
g2
S'University of Texas Austin'
p195
sg4
S'HANDBOOK OF SOCIOLOGY OF AGING'
p196
sg6
S'Angel, Jacqueline L.'
p197
sg8
I2011
sg9
S'Univ Texas Austin, Dept Sociol, Austin, TX 78712 USA.'
p198
sa(dp199
g2
S'Drexel University'
p200
sg4
S'SOCIOLOGICAL REALISM'
p201
sg6
S'Porpora, Douglas V.'
p202
sg8
I2011
sg9
S'Drexel Univ, Dept Culture & Commun, Philadelphia, PA 19104 USA.'
p203
sa(dp204
g2
S'University of Minnesota Twin Cities;University of Minnesota System'
p205
sg4
S'GERONTOLOGY IN THE ERA OF THE THIRD AGE: IMPLICATIONS AND NEXT STEPS'
p206
sg6
S'Moen, Phyllis'
p207
sg8
I2011
sg9
S'Univ Minnesota, Dept Sociol, Minneapolis, MN 55455 USA.'
p208
sa(dp209
g2
S'University of North Carolina;University of North Carolina Chapel Hill'
p210
sg4
S'GERONTOLOGY IN THE ERA OF THE THIRD AGE: IMPLICATIONS AND NEXT STEPS'
p211
sg6
S'Carr, Dawn C.'
p212
sg8
I2011
sg9
S'Univ N Carolina, Carolina Program Hlth & Aging Res CPHAR, Inst Aging, Chapel Hill, NC 27515 USA.'
p213
sa(dp214
g2
S'Oregon University System;University of Oregon'
p215
sg4
S'SOCIETY & NATURAL RESOURCES'
p216
sg6
S'Clement, Matthew Thomas'
p217
sg8
I2011
sg9
S'1291 Univ Oregon, Dept Sociol, Eugene, OR 97403 USA.'
p218
sa(dp219
g2
S'Indiana University Bloomington;Indiana University System'
p220
sg4
S'HANDBOOK OF THE SOCIOLOGY OF HEALTH, ILLNESS, AND HEALING: A BLUEPRINT FOR THE 21ST CENTURY'
p221
sg6
S'Pescosolido, Bernice A.'
p222
sg8
I2011
sg9
S'Indiana Univ, Dept Sociol, 1022 E 3rd St, Bloomington, IN 47405 USA.'
p223
sa(dp224
g2
S'Boston University'
p225
sg4
S'HANDBOOK OF THE SOCIOLOGY OF HEALTH, ILLNESS, AND HEALING: A BLUEPRINT FOR THE 21ST CENTURY'
p226
sg6
S'Olafsdottir, Sigrun'
p227
sg8
I2011
sg9
S'Boston Univ, Dept Sociol, 96 Cummington St, Boston, MA 02215 USA.'
p228
sa(dp229
g2
S'Loyola University Chicago'
p230
sg4
S'HANDBOOK OF THE SOCIOLOGY OF HEALTH, ILLNESS, AND HEALING: A BLUEPRINT FOR THE 21ST CENTURY'
p231
sg6
S'Figert, Anne E.'
p232
sg8
I2011
sg9
S'Loyola Univ, Dept Sociol, Coffey Hall 421,1032 W Sheridan Rd, Chicago, IL 60660 USA.'
p233
sa(dp234
g2
S'Dartmouth College'
p235
sg4
S'HANDBOOK OF THE SOCIOLOGY OF HEALTH, ILLNESS, AND HEALING: A BLUEPRINT FOR THE 21ST CENTURY'
p236
sg6
S'Lively, Kathryn J.'
p237
sg8
I2011
sg9
S'Dartmouth Coll, Dept Sociol, 6104 Silsby,Rm 1034, Hanover, NH 03755 USA.'
p238
sa(dp239
g2
S'University of Kentucky'
p240
sg4
S'HANDBOOK OF THE SOCIOLOGY OF HEALTH, ILLNESS, AND HEALING: A BLUEPRINT FOR THE 21ST CENTURY'
p241
sg6
S'Perry, Brea L.'
p242
sg8
I2011
sg9
S'Univ Kentucky, Dept Sociol, 1527 Patterson Off Tower, Lexington, KY 40506 USA.'
p243
sa(dp244
g2
S'Northern Arizona University'
p245
sg4
S'INTERNATIONAL JOURNAL OF SUSTAINABLE DEVELOPMENT AND WORLD ECOLOGY'
p246
sg6
S'Wright, Alexandria M.'
p247
sg8
I2011
sg9
S'No Arizona Univ, WA Franke Coll Business, Flagstaff, AZ 86011 USA.'
p248
sa(dp249
g2
S'Arizona State University'
p250
sg4
S'ECOLOGY AND SOCIETY'
p251
sg6
S'Anderies, John M.'
p252
sg8
I2011
sg9
S'Arizona State Univ, Sch Human Evolut & Social Change, Tempe, AZ 85287 USA.'
p253
sa(dp254
g2
S'Arizona State University'
p255
sg4
S'ECOLOGY AND SOCIETY'
p256
sg6
S'Schoon, Michael'
p257
sg8
I2011
sg9
S'Arizona State Univ, Tempe, AZ 85287 USA.'
p258
sa(dp259
g2
S'University of Arizona'
p260
sg4
S'TREE-RING RESEARCH'
p261
sg6
S'Creasman, Pearce Paul'
p262
sg8
I2011
sg9
S'Univ Arizona, Tree Ring Res Lab, Tucson, AZ 85721 USA.'
p263
sa(dp264
g2
S'Cornell University'
p265
sg4
S'TREE-RING RESEARCH'
p266
sg6
S'Brewer, Peter W.'
p267
sg8
I2011
sg9
S'Cornell Univ, Malcolm & Carolyn Wiener Lab Aegean & Near Easter, Ithaca, NY 14853 USA.'
p268
sa(dp269
g2
S'New York University'
p270
sg4
S'ARCHIVES EUROPEENNES DE SOCIOLOGIE'
p271
sg6
S'Abend, Gabriel'
p272
sg8
I2011
sg9
S'NYU, Dept Sociol, New York, NY 10003 USA.'
p273
sa(dp274
g2
S'University System Of New Hampshire;University of New Hampshire'
p275
sg4
S'SOCIETY & NATURAL RESOURCES'
p276
sg6
S'Safford, Thomas G.'
p277
sg8
I2011
sg9
S'Univ New Hampshire, Dept Sociol, 417 Horton Social Sci, Durham, NH 03824 USA.'
p278
sa(dp279
g2
g17
sg4
S'TEACHING SOCIOLOGY'
p280
sg6
S'Sweet, Stephen'
p281
sg8
I2011
sg9
S'Ithaca Coll, Dept Sociol, Muller Fac Ctr, Ithaca, NY 14850 USA.'
p282
sa(dp283
g2
S'University of Houston;University of Houston System'
p284
sg4
S'TEACHING SOCIOLOGY'
p285
sg6
S'Kwan, Samantha'
p286
sg8
I2011
sg9
S'Univ Houston, Dept Sociol, 482 Philip G Hoffman Hall, Houston, TX 77204 USA.'
p287
sa(dp288
g2
S'Duke University'
p289
sg4
S'TEACHING SOCIOLOGY'
p290
sg6
S'Bach, Rebecca'
p291
sg8
I2011
sg9
S'Duke Univ, Dept Sociol, 260 Sociol Psychol Bldg,Box 90088, Durham, NC 27708 USA.'
p292
sa(dp293
g2
g17
sg4
S'TEACHING SOCIOLOGY'
p294
sg6
S'Napierski-Prancl, Michelle'
p295
sg8
I2011
sg9
S'Russell Sage Coll Women, Dept Sociol & Criminal Justice, 45 Ferry St, Troy, NY 12180 USA.'
p296
sa(dp297
g2
S'Utah State University;Utah System of Higher Education'
p298
sg4
S'CRITICAL REVIEWS IN PLANT SCIENCES'
p299
sg6
S'Tainter, Joseph A.'
p300
sg8
I2011
sg9
S'Utah State Univ, Dept Environm & Soc, Logan, UT 84322 USA.'
p301
sa(dp302
g2
g17
sg4
S'SOCIETY & NATURAL RESOURCES'
p303
sg6
S'Gramling, Robert'
p304
sg8
I2011
sg9
S'Univ Louisiana Lafayette, Dept Sociol & Anthropol, POB 40198, Lafayette, LA 70504 USA.'
p305
sa(dp306
g2
g17
sg4
S'ECOLOGY AND SOCIETY'
p307
sg6
S'Stephenson, Max O., Jr.'
p308
sg8
I2011
sg9
S'Virginia Tech Inst Policy & Governance, Blacksburg, VA 24061 USA.'
p309
sa(dp310
g2
S'University of Michigan;University of Michigan System'
p311
sg4
S'ECOLOGY AND SOCIETY'
p312
sg6
S'Bell, Andrew Reid'
p313
sg8
I2011
sg9
S'Univ Michigan, Sch Nat Resources & Environm, Ann Arbor, MI 48109 USA.'
p314
sa(dp315
g2
S'United States Department of Agriculture (USDA);United States Forest Service'
p316
sg4
S'ECOLOGY AND SOCIETY'
p317
sg6
S'Watson, Alan'
p318
sg8
I2011
sg9
S'[ 1 ] US Forest Serv, Rocky Mt Res Stn, USDA, Morgantown, WV 26505 USA'
p319
sa(dp320
g2
S'University of Tennessee Knoxville;University of Tennessee System'
p321
sg4
S'SOCIOLOGICAL SPECTRUM'
p322
sg6
S'Walton, Tobin'
p323
sg8
I2011
sg9
S'Univ Tennessee, Dept Sociol, Knoxville, TN 37996 USA.'
p324
sa(dp325
g2
S'University of Minnesota System;University of Minnesota Twin Cities'
p326
sg4
S'URBAN FORESTRY & URBAN GREENING'
p327
sg6
S'Kokotovich, Adam E.'
p328
sg8
I2011
sg9
S'Univ Minnesota, Dept Forest Resources, Nat Resources Sci & Management Program, St Paul, MN 55108 USA.'
p329
sa(dp330
g2
S'State University of New York (SUNY) Stony Brook;State University of New York (SUNY) System'
p331
sg4
S'ARCHIVES EUROPEENNES DE SOCIOLOGIE'
p332
sg6
S'Arjomand, Said Amir'
p333
sg8
I2011
sg9
S'SUNY Stony Brook, Stony Brook, NY 11794 USA.'
p334
sa(dp335
g2
S'California State University Northridge;California State University System'
p336
sg4
S'SOCIOLOGICAL SPECTRUM'
p337
sg6
S'Boyns, David'
p338
sg8
I2011
sg9
S'Calif State Univ Northridge, Dept Sociol, 18111 Nordhoff St, Northridge, CA 91330 USA.'
p339
sa(dp340
g2
g17
sg4
S'MEDIA CULTURE & SOCIETY'
p341
sg6
S'Li, Xinghua'
p342
sg8
I2011
sg9
S'Babson Coll, Hist & Soc Div, 231 Forest St, Wellesley, MA 02481 USA.'
p343
sa(dp344
g2
S'University of Nebraska Lincoln;University of Nebraska System'
p345
sg4
S'SOCIETY & NATURAL RESOURCES'
p346
sg6
S'Sautter, John A.'
p347
sg8
I2011
sg9
S'Univ Nebraska, Dept Agr Econ, Lincoln, NE 68588 USA.'
p348
sa(dp349
g2
S'University of Arkansas Medical Sciences;University of Arkansas System'
p350
sg4
S'AIDS CARE-PSYCHOLOGICAL AND SOCIO-MEDICAL ASPECTS OF AIDS/HIV'
p351
sg6
S'Stewart, Katharine E.'
p352
sg8
I2011
sg9
S'Univ Arkansas Med Sci, Fay W Boozman Coll Publ Hlth, Little Rock, AR 72205 USA.'
p353
sa(dp354
g2
S'University of Southern California'
p355
sg4
S'AIDS CARE-PSYCHOLOGICAL AND SOCIO-MEDICAL ASPECTS OF AIDS/HIV'
p356
sg6
S'Traube, Dorian E.'
p357
sg8
I2011
sg9
S'Univ So Calif, Sch Social Work, Los Angeles, CA 90089 USA.'
p358
sa(dp359
g2
S'University of North Dakota Grand Forks'
p360
sg4
S'AIDS CARE-PSYCHOLOGICAL AND SOCIO-MEDICAL ASPECTS OF AIDS/HIV'
p361
sg6
S'Badahdah, Abdallah M.'
p362
sg8
I2011
sg9
S'Univ N Dakota, Dept Sociol, Grand Forks, ND 58201 USA.'
p363
sa(dp364
g2
S'Brown University'
p365
sg4
S'AIDS CARE-PSYCHOLOGICAL AND SOCIO-MEDICAL ASPECTS OF AIDS/HIV'
p366
sg6
S'Venkatesh, Kartik K.'
p367
sg8
I2011
sg9
S'Brown Univ, Dept Community Hlth, Alpert Med Sch, Providence, RI 02912 USA.'
p368
sa(dp369
g2
g17
sg4
S'AIDS CARE-PSYCHOLOGICAL AND SOCIO-MEDICAL ASPECTS OF AIDS/HIV'
p370
sg6
S'Marc, Linda G.'
p371
sg8
I2011
sg9
S'Cambridge Hlth Alliance, Ctr Multicultural Mental Hlth Res, Somerville, MA USA.'
p372
sa(dp373
g2
S'Tulane University'
p374
sg4
S'AIDS CARE-PSYCHOLOGICAL AND SOCIO-MEDICAL ASPECTS OF AIDS/HIV'
p375
sg6
S'Anglewicz, Philip'
p376
sg8
I2011
sg9
S'Tulane Univ, Sch Publ Hlth & Trop Med, Dept Int Hlth & Dev, New Orleans, LA 70118 USA.'
p377
sa(dp378
g2
S'Columbia University'
p379
sg4
S'AIDS CARE-PSYCHOLOGICAL AND SOCIO-MEDICAL ASPECTS OF AIDS/HIV'
p380
sg6
S'Pinto, Rogerio M.'
p381
sg8
I2011
sg9
S'Columbia Univ, Sch Social Work, New York, NY 10027 USA.'
p382
sa(dp383
g2
S'Brown University'
p384
sg4
S'AIDS CARE-PSYCHOLOGICAL AND SOCIO-MEDICAL ASPECTS OF AIDS/HIV'
p385
sg6
S'Davidoff-Gore, Alena'
p386
sg8
I2011
sg9
S'Brown Univ, Populat Studies & Training Ctr, Providence, RI 02912 USA.'
p387
sa(dp388
g2
S'University of California San Diego;University of California System'
p389
sg4
S'AMERICAN JOURNAL OF BIOETHICS'
p390
sg6
S'Schneiderman, Lawrence J.'
p391
sg8
I2011
sg9
S'Univ Calif San Diego, Sch Med, La Jolla, CA 92093 USA.'
p392
sa(dp393
g2
S'Yale University'
p394
sg4
S'AMERICAN JOURNAL OF BIOETHICS'
p395
sg6
S'Gordon, Judith B.'
p396
sg8
I2011
sg9
S'Yale Univ, Sch Med, 31 Beach PointDrive, Milford, CT 06460 USA.'
p397
sa(dp398
g2
S'Yale University'
p399
sg4
S'AMERICAN JOURNAL OF BIOETHICS'
p400
sg6
S'Ruger, Jennifer Prah'
p401
sg8
I2011
sg9
S'Yale Univ, 60 Coll St,POB 208034, New Haven, CT 06520 USA.'
p402
sa(dp403
g2
S'University of Pennsylvania'
p404
sg4
S'AMERICAN JOURNAL OF MEDICAL GENETICS PART A'
p405
sg6
S'Teman, Elly'
p406
sg8
I2011
sg9
S'Hosp Univ Penn, Penn CIGHT, 1112 Penn Tower,399 S 34th St, Philadelphia, PA 19104 USA.'
p407
sa(dp408
g2
S'University of California San Francisco;University of California System'
p409
sg4
S'AMERICAN JOURNAL OF PREVENTIVE MEDICINE'
p410
sg6
S'Braveman, Paula A.'
p411
sg8
I2011
sg9
S'Univ Calif San Francisco, Ctr Social Dispar Hlth, Dept Family & Community Med, Box 0943,3333 Calif St,Suite 365, San Francisco, CA 94118 USA.'
p412
sa(dp413
g2
g17
sg4
S'ANNALS OF HUMAN BIOLOGY'
p414
sg6
S'Hurd, James P.'
p415
sg8
I2011
sg9
S'Bethel Univ, Dept Anthropol & Sociol, 3900 Bethel Dr, St Paul, MN 55112 USA.'
p416
sa(dp417
g2
S'Princeton University'
p418
sg4
S'ANNUAL REVIEW OF LAW AND SOCIAL SCIENCE, VOL 7'
p419
sg6
S'Greenhouse, Carol J.'
p420
sg8
I2011
sg9
S'Princeton Univ, Dept Anthropol, Princeton, NJ 08544 USA.'
p421
sa(dp422
g2
S'MINES ParisTech;PSL Research University Paris'
p423
sg4
S'ANNUAL REVIEW OF LAW AND SOCIAL SCIENCE, VOL 7'
p424
sg6
S'Karpik, Lucien'
p425
sg8
I2011
sg9
S'Ecole Mines, Ctr Raymond Aron EHESS, F-75272 Paris, France.'
p426
sa(dp427
g2
S'University of California Irvine;University of California System'
p428
sg4
S'ANNUAL REVIEW OF SOCIOLOGY, VOL 37'
p429
sg6
S'Polletta, Francesca'
p430
sg8
I2011
sg9
S'Univ Calif Irvine, Dept Sociol, Irvine, CA 92697 USA.'
p431
sa(dp432
g2
S'New York University'
p433
sg4
S'ANNUAL REVIEW OF SOCIOLOGY, VOL 37'
p434
sg6
S'Manza, Jeff'
p435
sg8
I2011
sg9
S'NYU, Dept Sociol, 550 1St Ave, New York, NY 10012 USA.'
p436
sa(dp437
g2
S'Rutgers State University'
p438
sg4
S'ANNUAL REVIEW OF SOCIOLOGY, VOL 37'
p439
sg6
S'Rudel, Thomas K.'
p440
sg8
I2011
sg9
S'Rutgers State Univ, Dept Human Ecol, New Brunswick, NJ 08901 USA.'
p441
sa(dp442
g2
S'Northwestern University'
p443
sg4
S'ANNUAL REVIEW OF SOCIOLOGY, VOL 37'
p444
sg6
S'Carruthers, Bruce G.'
p445
sg8
I2011
sg9
S'Northwestern Univ, Dept Sociol, Evanston, IL 60201 USA.'
p446
sa(dp447
g2
S'University of British Columbia'
p448
sg4
S'ANNUAL REVIEW OF SOCIOLOGY, VOL 37'
p449
sg6
S'Gross, Neil'
p450
sg8
I2011
sg9
S'Univ British Columbia, Dept Sociol, Vancouver, BC V6T 1Z1, Canada.'
p451
sa(dp452
g2
S'University of Pennsylvania'
p453
sg4
S'BIODEMOGRAPHY AND SOCIAL BIOLOGY'
p454
sg6
S'Kohler, Hans-Peter'
p455
sg8
I2011
sg9
S'Univ Penn, Dept Sociol, 3718 Locust Walk, Philadelphia, PA 19104 USA.'
p456
sa(dp457
g2
S'University of Texas Dallas'
p458
sg4
S'BIODEMOGRAPHY AND SOCIAL BIOLOGY'
p459
sg6
S'Shutt, J. Eagle'
p460
sg8
I2011
sg9
S'Univ Texas Dallas, Sch Econ Polit & Policy Sci, 800 W Campbell Rd, Richardson, TX 75080 USA.'
p461
sa(dp462
g2
S'University of Notre Dame'
p463
sg4
S'BIODEMOGRAPHY AND SOCIAL BIOLOGY'
p464
sg6
S'McClintock, Elizabeth Aura'
p465
sg8
I2011
sg9
S'Univ Notre Dame, Dept Sociol, 810 Flanner Hall, Notre Dame, IN 46556 USA.'
p466
sa(dp467
g2
S'University of California Los Angeles;University of California System'
p468
sg4
S'BRITISH JOURNAL OF SOCIOLOGY OF EDUCATION'
p469
sg6
S'Rexhepi, Jevdet'
p470
sg8
I2011
sg9
S'Univ Calif Los Angeles, Grad Sch Educ & Informat Studies, Los Angeles, CA 90095 USA.'
p471
sa(dp472
g2
S'Stanford University'
p473
sg4
S'CANCER'
p474
sg6
S'Pollitt, Ricardo A.'
p475
sg8
I2011
sg9
S'Stanford Univ, Med Ctr, Dept Dermatol, Pigmented Les & Melanoma Program, 450 Broadway St,2nd Floor, Redwood City, CA 94063 USA.'
p476
sa(dp477
g2
S'Dana-Farber Cancer Institute;Harvard University;VA Boston Healthcare System'
p478
sg4
S'CANCER'
p479
sg6
S'Freedman, Rachel A.'
p480
sg8
I2011
sg9
S'Harvard Univ, Dana Farber Canc Inst, Sch Med, 44 Binney St, Boston, MA 02115 USA.'
p481
sa(dp482
g2
g17
sg4
S'CLASSIC WRITINGS IN LAW AND SOCIETY, 2ND EDITION'
p483
sg6
S'Trevino, A. Javier'
p484
sg8
I2011
sg9
S'Wheaton Coll, Norton, MA 02766 USA.'
p485
sa(dp486
g2
g17
sg4
S'CLASSIC WRITINGS IN LAW AND SOCIETY, 2ND EDITION'
p487
sg6
S'Trevino, A. Javier'
p488
sg8
I2011
sg9
S'Wheaton Coll, Norton, MA 02766 USA.'
p489
sa(dp490
g2
g17
sg4
S'DIVERSITY OF SOCIAL THEORIES'
p491
sg6
S'Benziger, Karl P.'
p492
sg8
I2011
sg9
S'Rhode Isl Coll, Dept Hist, Providence, RI 02908 USA.'
p493
sa(dp494
g2
S'American University'
p495
sg4
S'DIVERSITY OF SOCIAL THEORIES'
p496
sg6
S'Ruiz-Junco, Natalia'
p497
sg8
I2011
sg9
S'American Univ, Dept Sociol, Washington, DC 20016 USA.'
p498
sa(dp499
g2
g17
sg4
S'EARLY HUMAN DEVELOPMENT'
p500
sg6
S'Balakrishnan, Asha'
p501
sg8
I2011
sg9
S'101 Dudley St, Providence, RI 02905 USA.'
p502
sa(dp503
g2
S'Arizona State University'
p504
sg4
S'ECOLOGY AND SOCIETY'
p505
sg6
S'Nelson, Margaret C.'
p506
sg8
I2011
sg9
S'Arizona State Univ, Tempe, AZ 85287 USA.'
p507
sa(dp508
g2
S'Illinois State University'
p509
sg4
S'ECONOMY AND SOCIETY'
p510
sg6
S'Pitluck, Aaron Z.'
p511
sg8
I2011
sg9
S'Illinois State Univ, Campus Box 4660, Normal, IL 61790 USA.'
p512
sa(dp513
g2
g17
sg4
S'ENVIRONMENT'
p514
sg6
S'Molnar, Carina'
p515
sg8
I2011
sg9
S'CUNY Inst Sustainable Cities CISC, New York, NY USA.'
p516
sa(dp517
g2
g17
sg4
S'GENETICS'
p518
sg6
S'Carlson, Elof Axel'
p519
sg8
I2011
sg9
S'POB 8638, Bloomington, IN 47407 USA.'
p520
sa(dp521
g2
S'University of Washington;University of Washington Seattle'
p522
sg4
S'GENOME MEDICINE'
p523
sg6
S'Burke, Wylie'
p524
sg8
I2011
sg9
S'Univ Washington, Dept Bioeth & Humanities, Box 357120,1959 NE Pacific,Room A204, Seattle, WA 98195 USA.'
p525
sa(dp526
g2
S'Arizona State University'
p527
sg4
S'GLOBAL NETWORKS-A JOURNAL OF TRANSNATIONAL AFFAIRS'
p528
sg6
S'Mckenzie, Sean'
p529
sg8
I2011
sg9
S'Arizona State Univ, Sch Social & Family Dynam, Program Sociol, Tempe, AZ 85287 USA.'
p530
sa(dp531
g2
S'Northwestern University'
p532
sg4
S'HANDBOOK OF THE SOCIOLOGY OF HEALTH, ILLNESS, AND HEALING: A BLUEPRINT FOR THE 21ST CENTURY'
p533
sg6
S'Freese, Jeremy'
p534
sg8
I2011
sg9
S'Northwestern Univ, Dept Sociol, 1810 Chicago Ave,Rm 211, Evanston, IL 60208 USA.'
p535
sa(dp536
g2
S'Brown University'
p537
sg4
S'HANDBOOK OF THE SOCIOLOGY OF HEALTH, ILLNESS, AND HEALING: A BLUEPRINT FOR THE 21ST CENTURY'
p538
sg6
S'Brown, Phil'
p539
sg8
I2011
sg9
S'Brown Univ, Dept Sociol, 112 George St,201 Maxcy Hall, Providence, RI 02912 USA.'
p540
sa(dp541
g2
S'University of Minnesota Duluth;University of Minnesota System;University of Minnesota Twin Cities'
p542
sg4
S'HANDBOOK OF THE SOCIOLOGY OF HEALTH, ILLNESS, AND HEALING: A BLUEPRINT FOR THE 21ST CENTURY'
p543
sg6
S'Hafferty, Frederic W.'
p544
sg8
I2011
sg9
S'Univ Minnesota, Sch Med, Dept Behav Sci, 1035 Univ Dr, Duluth, MN 55812 USA.'
p545
sa(dp546
g2
S'Arizona State University'
p547
sg4
S'HANDBOOK OF THE SOCIOLOGY OF HEALTH, ILLNESS, AND HEALING: A BLUEPRINT FOR THE 21ST CENTURY'
p548
sg6
S'Kronenfeld, Jennie Jacobs'
p549
sg8
I2011
sg9
S'Arizona State Univ, Sociol Program, Sch Family & Social Dynam, Tempe, AZ 85287 USA.'
p550
sa(dp551
g2
S'Indiana University of Pennsylvania;Pennsylvania State System of Higher Education (PASSHE)'
p552
sg4
S'HUMAN DEVELOPMENT'
p553
sg6
S'Raeff, Catherine'
p554
sg8
I2011
sg9
S'Indiana Univ Penn, Dept Psychol, Indiana, PA 15705 USA.'
p555
sa(dp556
g2
S'Ohio State University'
p557
sg4
S'HUMAN DEVELOPMENT'
p558
sg6
S'Daddis, Christopher'
p559
sg8
I2011
sg9
S'Ohio State Univ, Dept Psychol, 1465 Mt Vernon Ave, Marion, OH 43302 USA.'
p560
sa(dp561
g2
S'University of California Berkeley;University of California System'
p562
sg4
S'HUMAN DEVELOPMENT'
p563
sg6
S'Turiel, Elliot'
p564
sg8
I2011
sg9
S'Univ Calif Berkeley, Grad Sch Educ, Tolman Hall, Berkeley, CA 94720 USA.'
p565
sa(dp566
g2
S'University of Massachusetts Amherst;University of Massachusetts System'
p567
sg4
S'INFORMATION COMMUNICATION & SOCIETY'
p568
sg6
S'Ford, Sarah Michele'
p569
sg8
I2011
sg9
S'Univ Massachusetts, 400 Hicks Way, Amherst, MA 01003 USA.'
p570
sa(dp571
g2
S'Texas A&M University College Station;Texas A&M University System'
p572
sg4
S'INFORMATION COMMUNICATION & SOCIETY'
p573
sg6
S'Flores-Yeffal, Nadia Yamel'
p574
sg8
I2011
sg9
S'Texas A&M Univ, Dept Sociol, College Stn, TX 77843 USA.'
p575
sa(dp576
g2
S'Washington State University'
p577
sg4
S'INTERNATIONAL JOURNAL OF ASTROBIOLOGY'
p578
sg6
S'Antonio, Marina Resendes de Sousa'
p579
sg8
I2011
sg9
S'Washington State Univ, Sch Earth & Environm Sci, POB 642812, Pullman, WA 99164 USA.'
p580
sa(dp581
g2
g17
sg4
S'INTERNATIONAL JOURNAL OF QUALITATIVE METHODS'
p582
sg6
S'Singer, Amy E.'
p583
sg8
I2011
sg9
S'Knox Coll, Galesburg, IL 61401 USA.'
p584
sa(dp585
g2
S'Yale University'
p586
sg4
S'INTERNATIONAL JOURNAL OF SUSTAINABLE DEVELOPMENT AND WORLD ECOLOGY'
p587
sg6
S'Nguyen Ngoc Thuy'
p588
sg8
I2011
sg9
S'Yale Univ, Sch Forestry & Environm Studies, New Haven, CT 06511 USA.'
p589
sa(dp590
g2
S'Kennedy Krieger Institute'
p591
sg4
S'JOURNAL OF AUTISM AND DEVELOPMENTAL DISORDERS'
p592
sg6
S'Daniels, Amy M.'
p593
sg8
I2011
sg9
S'Kennedy Krieger Inst, Dept Med Informat, 3825 Greenspring Ave,Painter Bldg 1st Floor, Baltimore, MD 21211 USA.'
p594
sa(dp595
g2
g17
sg4
S'JOURNAL OF DEVELOPMENTAL AND BEHAVIORAL PEDIATRICS'
p596
sg6
S'Taylor, Tasha'
p597
sg8
I2011
sg9
S'N Cty Hlth Serv, Dept Pediat, Oceanside, CA USA.'
p598
sa(dp599
g2
S'University of California San Francisco;University of California System'
p600
sg4
S'JOURNAL OF EPIDEMIOLOGY AND COMMUNITY HEALTH'
p601
sg6
S'Eisner, M. D.'
p602
sg8
I2011
sg9
S'Univ Calif San Francisco, Dept Med, Div Pulm & Crit Care Med, 505 Parnassus Ave,M1097, San Francisco, CA 94143 USA.'
p603
sa(dp604
g2
S'Northeastern University'
p605
sg4
S'JOURNAL OF EPIDEMIOLOGY AND COMMUNITY HEALTH'
p606
sg6
S'Almeida, J.'
p607
sg8
I2011
sg9
S'Northeastern Univ, Bouve Coll Hlth Sci, Inst Urban Hlth Res, 360 Huntington Ave, Boston, MA 02115 USA.'
p608
sa(dp609
g2
S'Pacific Institute for Research & Evaluation (PIRE)'
p610
sg4
S'JOURNAL OF STUDIES ON ALCOHOL AND DRUGS'
p611
sg6
S'Friese, Bettina'
p612
sg8
I2011
sg9
S'Prevent Res Ctr, PIRE, 1995 Univ Ave,Suite 450, Berkeley, CA 94704 USA.'
p613
sa(dp614
g2
S'Howard University'
p615
sg4
S'JOURNAL OF THE NATIONAL MEDICAL ASSOCIATION'
p616
sg6
S'Gaston, Marilyn Hughes'
p617
sg8
I2011
sg9
S'Howard Univ, Dept Human Dev & Psychoeduc Studies, 2441 4th St NW, Washington, DC 20059 USA.'
p618
sa(dp619
g2
S'University of Rochester'
p620
sg4
S'NEUROEPIDEMIOLOGY'
p621
sg6
S'Kobrosly, Roni W.'
p622
sg8
I2011
sg9
S'Univ Rochester, Sch Med & Dent, Dept Community & Prevent Med, 601 Elmwood Ave,Box 644, Rochester, NY 14642 USA.'
p623
sa(dp624
g2
S'Michigan State University'
p625
sg4
S'NEUROPSYCHOBIOLOGY'
p626
sg6
S'Semrud-Clikeman, Margaret'
p627
sg8
I2011
sg9
S'Michigan State Univ, Dept Psychol, Psychol Bldg, E Lansing, MI 48824 USA.'
p628
sa(dp629
g2
S'University of Michigan;University of Michigan System'
p630
sg4
S'NEW PHYTOLOGIST'
p631
sg6
S'Currie, William S.'
p632
sg8
I2011
sg9
S'Univ Michigan, Sch Nat Resources & Environm, 440 Church St, Ann Arbor, MI 48109 USA.'
p633
sa(dp634
g2
g17
sg4
S'OPHTHALMIC RESEARCH'
p635
sg6
S'Stewart, William C.'
p636
sg8
I2011
sg9
S'PRN Pharmaceut Res Network LLC, 6296 Rivers Ave,Suite 309, Charleston, SC 29406 USA.'
p637
sa(dp638
g2
S'Rensselaer Polytechnic Institute'
p639
sg4
S'RED, BLACK, AND OBJECTIVE: SCIENCE, SOCIOLOGY, AND ANARCHISM'
p640
sg6
S'Restivo, Sal'
p641
sg8
I2011
sg9
S'Rensselaer Polytech Inst, Troy, NY 12181 USA.'
p642
sa(dp643
g2
S'Rensselaer Polytechnic Institute'
p644
sg4
S'RED, BLACK, AND OBJECTIVE: SCIENCE, SOCIOLOGY, AND ANARCHISM'
p645
sg6
S'Restivo, Sal'
p646
sg8
I2011
sg9
S'Rensselaer Polytech Inst, Troy, NY 12181 USA.'
p647
sa(dp648
g2
S'University of Utah;Utah System of Higher Education'
p649
sg4
S'SOCIAL SCIENCE RESEARCH'
p650
sg6
S'Jorgenson, Andrew K.'
p651
sg8
I2011
sg9
S'Univ Utah, Dept Sociol, 380 South,1530 East,Room 301, Salt Lake City, UT 84112 USA.'
p652
sa(dp653
g2
S'University of Arkansas Fayetteville;University of Arkansas System'
p654
sg4
S'SOCIAL SCIENCE RESEARCH'
p655
sg6
S'Yang, Song'
p656
sg8
I2011
sg9
S'Univ Arkansas, Dept Sociol & Criminal Justice, 211 Old Main, Fayetteville, AR 72701 USA.'
p657
sa(dp658
g2
S'University of Wisconsin Madison;University of Wisconsin System'
p659
sg4
S'SOCIETY & NATURAL RESOURCES'
p660
sg6
S'Legun, Katharine'
p661
sg8
I2011
sg9
S'Univ Wisconsin, Dept Sociol, 8128 William H Sewell Social Sci Bldg,1180 Observ, Madison, WI 53706 USA.'
p662
sa(dp663
g2
S'University of Wisconsin System;University of Wisconsin Madison'
p664
sg4
S'STRANGE MUSIC OF SOCIAL LIFE: A DIALOGUE ON DIALOGIC SOCIOLOGY'
p665
sg6
S'Bell, Michael M.'
p666
sg8
I2011
sg9
S'Univ Wisconsin Madison, Madison, WI 53706 USA.'
p667
sa(dp668
g2
g17
sg4
S'STRANGE MUSIC OF SOCIAL LIFE: A DIALOGUE ON DIALOGIC SOCIOLOGY'
p669
sg6
S'Steinberg, Marc W.'
p670
sg8
I2011
sg9
S'Smith Coll, Northampton, MA 01063 USA.'
p671
sa(dp672
g2
S'Oklahoma State University - Stillwater;Oklahoma State University System'
p673
sg4
S'TEACHING SOCIOLOGY'
p674
sg6
S'Simpson, Joseph M.'
p675
sg8
I2011
sg9
S'Oklahoma State Univ, Dept Sociol, 405 S Murray, Stillwater, OK 74078 USA.'
p676
sa(dp677
g2
S'University of Tennessee System'
p678
sg4
S'TEACHING SOCIOLOGY'
p679
sg6
S'LeMoyne, Terri'
p680
sg8
I2011
sg9
S'Univ Tennessee, Dept Sociol, 615 McCallie Ave, Chattanooga, TN 37403 USA.'
p681
sa(dp682
g2
S'Cornell University'
p683
sg4
S'PROCEEDINGS OF THE NATIONAL ACADEMY OF SCIENCES OF THE UNITED STATES OF AMERICA'
p684
sg6
S'Crandall, David J.'
p685
sg8
I2010
sg9
S'Cornell Univ, Dept Comp Sci, Ithaca, NY 14853 USA.'
p686
sa(dp687
g2
S'University of Southern California'
p688
sg4
S'PROCEEDINGS OF THE NATIONAL ACADEMY OF SCIENCES OF THE UNITED STATES OF AMERICA'
p689
sg6
S'Easterlin, Richard A.'
p690
sg8
I2010
sg9
S'Univ So Calif, Dept Econ, Los Angeles, CA 90089 USA.'
p691
sa(dp692
g2
S'Rutgers State University;Rutgers State University New Brunswick'
p693
sg4
S'PLOS ONE'
p694
sg6
S'Hock, Karlo'
p695
sg8
I2010
sg9
S'Rutgers State Univ, Dept Ecol Evolut & Nat Resources, New Brunswick, NJ 08903 USA.'
p696
sa(dp697
g2
S'Harvard University'
p698
sg4
S'PROCEEDINGS OF THE ROYAL SOCIETY B-BIOLOGICAL SCIENCES'
p699
sg6
S'Hill, Alison L.'
p700
sg8
I2010
sg9
S'Harvard Univ, Program Evolutionary Dynam, Cambridge, MA 02138 USA.'
p701
sa(dp702
g2
S'University of California Los Angeles;University of California System'
p703
sg4
S'JAIDS-JOURNAL OF ACQUIRED IMMUNE DEFICIENCY SYNDROMES'
p704
sg6
S'Young, Sean D.'
p705
sg8
I2010
sg9
S'Univ Calif Los Angeles, David Geffen Sch Med, Dept Med, UCLA Program Global Hlth, 10940 Wilshire Blvd,Suite 1220, Los Angeles, CA 90095 USA.'
p706
sa(dp707
g2
S'University of North Carolina;University of North Carolina Chapel Hill'
p708
sg4
S'JAIDS-JOURNAL OF ACQUIRED IMMUNE DEFICIENCY SYNDROMES'
p709
sg6
S'Adimora, Adaora A.'
p710
sg8
I2010
sg9
S'Univ N Carolina, Sch Med, Dept Med, Chapel Hill, NC 27599 USA.'
p711
sa(dp712
g2
S'University of California San Francisco;University of California System'
p713
sg4
S'PLOS ONE'
p714
sg6
S'Gupta, Reshma'
p715
sg8
I2010
sg9
S'Univ Calif San Francisco, Dept Med, Div Hosp Med, San Francisco, CA 94143 USA.'
p716
sa(dp717
g2
S'Cornell University;Weill Cornell Medical College;Weill Cornell Medical College Qatar'
p718
sg4
S'CEREBRAL CORTEX'
p719
sg6
S'Somerville, Leah H.'
p720
sg8
I2010
sg9
S'Weill Cornell Med Coll, 1300 York Ave,Box 140, New York, NY 10065 USA.'
p721
sa(dp722
g2
S'North Carolina State University;University of North Carolina'
p723
sg4
S'SEXUALITY RESEARCH AND SOCIAL POLICY'
p724
sg6
S'Elliott, Sinikka'
p725
sg8
I2010
sg9
S'N Carolina State Univ, Dept Sociol & Anthropol, Campus Box 8107, Raleigh, NC 27695 USA.'
p726
sa(dp727
g2
S'University of Miami'
p728
sg4
S'DEVELOPMENTAL REVIEW'
p729
sg6
S'Field, Tiffany'
p730
sg8
I2010
sg9
S'Univ Miami, Sch Med, Touch Res Inst, POB 016820, Miami, FL 33101 USA.'
p731
sa(dp732
g2
g17
sg4
S'PEDIATRICS'
p733
sg6
S'Bostic, Elizabeth'
p734
sg8
I2010
sg9
S'Inst Community Inclus, 1295 Boylston St, Boston, MA 02114 USA.'
p735
sa(dp736
g2
S'City University London'
p737
sg4
S'HUMAN STUDIES'
p738
sg6
S'Bickerton, Jane'
p739
sg8
I2010
sg9
S'City Univ London, Sch Community & Hlth Sci, 20 Bartholomew Close, London EC1A 7QN, England.'
p740
sa(dp741
g2
S'University of Missouri Columbia;University of Missouri System'
p742
sg4
S'CRIME MEDIA CULTURE'
p743
sg6
S'Force, William Ryan'
p744
sg8
I2010
sg9
S'Univ Missouri, Dept Sociol, Columbia, MO 65211 USA.'
p745
sa(dp746
g2
S'University of Kentucky'
p747
sg4
S'RURAL SOCIOLOGY'
p748
sg6
S'Tanaka, Keiko'
p749
sg8
I2010
sg9
S'Univ Kentucky, Dept Sociol, Lexington, KY 40506 USA.'
p750
sa(dp751
g2
S'INSEAD Business School'
p752
sg4
S'POETICS'
p753
sg6
S'Godart, Frederic C.'
p754
sg8
I2010
sg9
S'INSEAD, Blvd Constance, F-77305 Fontainebleau, France.'
p755
sa(dp756
g2
g17
sg4
S'AMERICAN JOURNAL OF PHYSICAL ANTHROPOLOGY'
p757
sg6
S'Little, Bertis B.'
p758
sg8
I2010
sg9
S'Tarleton State Univ, Dept Math, Box T-0010, Stephenville, TX 76402 USA.'
p759
sa(dp760
g2
S'Johns Hopkins University'
p761
sg4
S'AMERICAN JOURNAL OF PREVENTIVE MEDICINE'
p762
sg6
S'Pollack, Craig Evan'
p763
sg8
I2010
sg9
S'Johns Hopkins Univ, 2024 E Monument St,Room 2-615, Baltimore, MD 21287 USA.'
p764
sa(dp765
g2
S'Centers for Disease Control & Prevention - USA'
p766
sg4
S'AMERICAN JOURNAL OF PREVENTIVE MEDICINE'
p767
sg6
S'Hahn, Robert A.'
p768
sg8
I2010
sg9
S'CDC, Community Guide Branch, Epidemiol & Anal Program Off, 1600 Clifton Rd,Mailstop E-69, Atlanta, GA 30333 USA.'
p769
sa(dp770
g2
S'Mount Sinai School of Medicine'
p771
sg4
S'AMERICAN JOURNAL OF PREVENTIVE MEDICINE'
p772
sg6
S'Morland, Kimberly B.'
p773
sg8
I2010
sg9
S'Mt Sinai Sch Med, Dept Prevent Med, 1 Gustave L Levy Pl,Box 1057, New York, NY 10029 USA.'
p774
sa(dp775
g2
S'Ben Gurion University'
p776
sg4
S'AMERICAN SOCIOLOGICAL REVIEW'
p777
sg6
S'Shwed, Uri'
p778
sg8
I2010
sg9
S'Ben Gurion Univ Negev, Dept Sociol & Anthropol, POB 653, IL-84105 Beer Sheva, Israel.'
p779
sa(dp780
g2
S'University of North Carolina;University of North Carolina Chapel Hill'
p781
sg4
S'ANNALS OF BEHAVIORAL MEDICINE'
p782
sg6
S'Samuel-Hodge, Carmen D.'
p783
sg8
I2010
sg9
S'Univ N Carolina, Chapel Hill, NC 27515 USA.'
p784
sa(dp785
g2
S'Indiana University Bloomington;Indiana University System'
p786
sg4
S'ARCHIVES OF SEXUAL BEHAVIOR'
p787
sg6
S'Weinberg, Martin S.'
p788
sg8
I2010
sg9
S'Indiana Univ, Dept Sociol, 1020 E Kirkwood Ave, Bloomington, IN 47405 USA.'
p789
sa(dp790
g2
S'University of North Carolina;University of North Carolina Chapel Hill'
p791
sg4
S'BIOLOGICAL PSYCHOLOGY'
p792
sg6
S'Kok, Bethany E.'
p793
sg8
I2010
sg9
S'Univ N Carolina, Dept Psychol, Chapel Hill, NC 27695 USA.'
p794
sa(dp795
g2
S'Cancer Prevention Institute of California'
p796
sg4
S'CANCER EPIDEMIOLOGY BIOMARKERS & PREVENTION'
p797
sg6
S'Chang, Ellen T.'
p798
sg8
I2010
sg9
S'Canc Prevent Inst Calif, 2201 Walnut Ave,Suite 300, Fremont, CA 94538 USA.'
p799
sa(dp800
g2
S'Louisiana State University;Louisiana State University System'
p801
sg4
S'COGNITIVE THERAPY AND RESEARCH'
p802
sg6
S'Copeland, Amy L.'
p803
sg8
I2010
sg9
S'Louisiana State Univ, Dept Psychol, 236 Audubon Hall, Baton Rouge, LA 70803 USA.'
p804
sa(dp805
g2
S'Clark University'
p806
sg4
S'COGNITIVE THERAPY AND RESEARCH'
p807
sg6
S'Syzdek, Matthew R.'
p808
sg8
I2010
sg9
S'Clark Univ, Frances L Hiatt Sch Psychol, 950 Main St, Worcester, MA 01610 USA.'
p809
sa(dp810
g2
S'University of Illinois System;University of Illinois Urbana-Champaign'
p811
sg4
S'CONSERVATION BIOLOGY'
p812
sg6
S'Brooks, Jeremy S.'
p813
sg8
I2010
sg9
S'Univ Illinois, Beckman Inst, 405 N Matthews Ave, Urbana, IL 61801 USA.'
p814
sa(dp815
g2
S'Brown University'
p816
sg4
S'CONTRACEPTION'
p817
sg6
S'Harel, Zeev'
p818
sg8
I2010
sg9
S'Brown Univ, Hasbro Childrens Hosp, Div Adolescent Med, Providence, RI 02903 USA.'
p819
sa(dp820
g2
S'Northwestern University'
p821
sg4
S'CURRENT OPINION IN NEUROBIOLOGY'
p822
sg6
S'Chiao, Joan Y.'
p823
sg8
I2010
sg9
S'Northwestern Univ, Dept Psychol, 2029 Sheridan Rd, Evanston, IL 60208 USA.'
p824
sa(dp825
g2
S'University of Idaho'
p826
sg4
S'ENDEAVOUR'
p827
sg6
S'Quinlan, Sean'
p828
sg8
I2010
sg9
S'Univ Idaho, Dept Hist, Moscow, ID 83844 USA.'
p829
sa(dp830
g2
S'Penn State University;Pennsylvania Commonwealth System of Higher Education (PCSHE)'
p831
sg4
S'ENVIRONMENTAL AND ECOLOGICAL STATISTICS'
p832
sg6
S'Yang, Tse-Chuan'
p833
sg8
I2010
sg9
S'Penn State Univ, Social Sci Res Inst, 803 Oswald Tower, University Pk, PA 16802 USA.'
p834
sa(dp835
g2
g17
sg4
S'ETHNICITY & DISEASE'
p836
sg6
S'Jones, Loretta'
p837
sg8
I2010
sg9
S'Healthy African Amer Families, 3756 Santa Rosalia Dr, Los Angeles, CA 90008 USA.'
p838
sa(dp839
g2
S'University of California Los Angeles;University of California System'
p840
sg4
S'ETHNICITY & DISEASE'
p841
sg6
S'Lu, Michael C.'
p842
sg8
I2010
sg9
S'Univ Calif Los Angeles, Dept Community Hlth Sci, Sch Publ Hlth, Box 951772, Los Angeles, CA 90095 USA.'
p843
sa(dp844
g2
S'University of California Los Angeles;University of California System'
p845
sg4
S'ETHNICITY & DISEASE'
p846
sg6
S'Lu, Michael C.'
p847
sg8
I2010
sg9
S'Univ Calif Los Angeles, Dept Community Hlth Sci, Sch Publ Hlth, Box 951772, Los Angeles, CA 90095 USA.'
p848
sa(dp849
g2
S'Morehouse School of Medicine'
p850
sg4
S'ETHNICITY & DISEASE'
p851
sg6
S'Fry-Johnson, Yvonne W.'
p852
sg8
I2010
sg9
S'Morehouse Sch Med, Dept Pediat, 720 Westview Dr SW, Atlanta, GA 30310 USA.'
p853
sa(dp854
g2
S'Iowa State University'
p855
sg4
S'FAMILY RELATIONS'
p856
sg6
S'Stewart, Susan D.'
p857
sg8
I2010
sg9
S'Iowa State Univ, Dept Sociol, 102 E Hall, Ames, IA 50011 USA.'
p858
sa(dp859
g2
S'State University of New York (SUNY) Stony Brook;State University of New York (SUNY) System'
p860
sg4
S'HEALTH SOCIOLOGY REVIEW'
p861
sg6
S'Kalish, Rachel'
p862
sg8
I2010
sg9
S'SUNY Stony Brook, Dept Sociol, Stony Brook, NY 11794 USA.'
p863
sa(dp864
g2
S'Florida State University System;University of South Florida'
p865
sg4
S'HEALTH SOCIOLOGY REVIEW'
p866
sg6
S'Barnshaw, John'
p867
sg8
I2010
sg9
S'Univ S Florida, Dept Sociol, Tampa, FL 33620 USA.'
p868
sa(dp869
g2
g17
sg4
S'HEALTH SOCIOLOGY REVIEW'
p870
sg6
S'McCann, Pol Dominic'
p871
sg8
I2010
sg9
S'Jansen Newman Inst Counselling & Psychotherapy, Sydney, NSW, Australia.'
p872
sa(dp873
g2
S'University of North Carolina;University of North Carolina Chapel Hill'
p874
sg4
S'INTERNATIONAL JOURNAL OF EPIDEMIOLOGY'
p875
sg6
S'Popkin, Barry M.'
p876
sg8
I2010
sg9
S'Univ N Carolina, Carolina Populat Ctr, 123 W Franklin St, Chapel Hill, NC 27516 USA.'
p877
sa(dp878
g2
S'California State University System;San Diego State University'
p879
sg4
S'INTERNATIONAL JOURNAL OF PUBLIC HEALTH'
p880
sg6
S'Ayers, John W.'
p881
sg8
I2010
sg9
S'San Diego State Univ, Grad Sch Publ Hlth, Ctr Behav Epidemiol & Community Hlth, 9245 Sky Pk Court,Suite 230, San Diego, CA 92123 USA.'
p882
sa(dp883
g2
S'University of Notre Dame'
p884
sg4
S'JOURNAL FOR THE SCIENTIFIC STUDY OF RELIGION'
p885
sg6
S'Smith, Christian'
p886
sg8
I2010
sg9
S'Univ Notre Dame, Dept Sociol, 816 Flanner Hall, Notre Dame, IN 46556 USA.'
p887
sa(dp888
g2
S'University of Southern Mississippi'
p889
sg4
S'JOURNAL OF PSYCHOPATHOLOGY AND BEHAVIORAL ASSESSMENT'
p890
sg6
S'Barry, Christopher T.'
p891
sg8
I2010
sg9
S'Univ So Mississippi, Dept Psychol, 118 Coll Dr,Box 5025, Hattiesburg, MS 39406 USA.'
p892
sa(dp893
g2
g17
sg4
S'JOURNAL OF THE AMERICAN GERIATRICS SOCIETY'
p894
sg6
S'Walker, Kara Odom'
p895
sg8
I2010
sg9
S'995 Potrero Ave,W 83, San Francisco, CA 94110 USA.'
p896
sa(dp897
g2
S'Rutgers State University'
p898
sg4
S'LAW & SOCIETY REVIEW'
p899
sg6
S'Lee, Catherine'
p900
sg8
I2010
sg9
S'Rutgers State Univ, Dept Sociol, Inst Hlth Hlth Care Policy & Aging Res, Davison Hall,26 Nichol St, New Brunswick, NJ 08901 USA.'
p901
sa(dp902
g2
S'University of California Davis;University of California System'
p903
sg4
S'PEDIATRICS'
p904
sg6
S'Baker, Dian L.'
p905
sg8
I2010
sg9
S'Univ Calif Davis, Betty Irene Moore Sch Nursing, 4610 X St, Sacramento, CA 95817 USA.'
p906
sa(dp907
g2
S'University of Massachusetts Boston;University of Massachusetts System'
p908
sg4
S'PEDIATRICS'
p909
sg6
S'Foley, Susan M.'
p910
sg8
I2010
sg9
S'Univ Massachusetts, Inst Community Inclus, 100 Morrissey Blvd, Boston, MA 02125 USA.'
p911
sa(dp912
g2
S'Harvard University'
p913
sg4
S'PEDIATRICS'
p914
sg6
S'Glader, Laurie'
p915
sg8
I2010
sg9
S'Harvard Univ, Sch Med, Childrens Hosp Boston, Div Gen Pediat,Complex Care Serv, Fegan 7,300 Longwood Ave, Boston, MA 02115 USA.'
p916
sa(dp917
g2
S'State University of New York (SUNY) System;State University of New York (SUNY) Upstate Medical Center'
p918
sg4
S'PERSPECTIVES IN BIOLOGY AND MEDICINE'
p919
sg6
S'Garden, Rebecca'
p920
sg8
I2010
sg9
S'Upstate Med Univ, 618 Irving Ave, Syracuse, NY 13210 USA.'
p921
sa(dp922
g2
g17
sg4
S'PSYCHOLOGICAL RECORD'
p923
sg6
S'Drake, Chad E.'
p924
sg8
I2010
sg9
S'Room 311C Peabody Bldg, University, MS 38677 USA.'
p925
sa(dp926
g2
S'University of California Berkeley;University of California System'
p927
sg4
S'QUALITATIVE SOCIOLOGY'
p928
sg6
S'Acord, Sophia Krzys'
p929
sg8
I2010
sg9
S'Univ Calif Berkeley, Ctr Studies Higher Educ, 771 Evans Hall 4650, Berkeley, CA 94720 USA.'
p930
sa(dp931
g2
g17
sg4
S'SOCIAL SCIENCE QUARTERLY'
p932
sg6
S'Sigelman, Lee'
p933
sg8
I2010
sg9
S'110 Sparks Bldg, University Pk, PA 16803 USA.'
p934
sa(dp935
g2
S'Indiana University Bloomington;Indiana University System'
p936
sg4
S'SOCIOLOGICAL FORUM'
p937
sg6
S'Pescosolido, Bernice A.'
p938
sg8
I2010
sg9
S'Indiana Univ, Dept Sociol, 1022 E 3rd St, Bloomington, IN 47405 USA.'
p939
sa(dp940
g2
S'University of California Riverside;University of California System'
p941
sg4
S'SOCIOLOGICAL PERSPECTIVES'
p942
sg6
S'Pyke, Karen D.'
p943
sg8
I2010
sg9
S'Univ Calif Riverside, Dept Sociol, Riverside, CA 92521 USA.'
p944
sa(dp945
g2
S'Northwestern University'
p946
sg4
S'SOCIOLOGICAL THEORY'
p947
sg6
S'Fine, Gary Alan'
p948
sg8
I2010
sg9
S'Northwestern Univ, Dept Sociol, Evanston, IL 60208 USA.'
p949
sa(dp950
g2
g17
sg4
S'SOCIOLOGICAL THEORY'
p951
sg6
S'Paretskaya, Anna'
p952
sg8
I2010
sg9
S'20 N Blair St,Apt 218, Madison, WI 53703 USA.'
p953
sa(dp954
g2
S'Ball State University'
p955
sg4
S'SOCIOLOGY OF RELIGION'
p956
sg6
S'Kraus, Rachel'
p957
sg8
I2010
sg9
S'Ball State Univ, Dept Sociol, N Quad 205, Muncie, IN 47306 USA.'
p958
sa(dp959
g2
S'University of Iowa'
p960
sg4
S'SUICIDE AND LIFE-THREATENING BEHAVIOR'
p961
sg6
S'Baller, Robert D.'
p962
sg8
I2010
sg9
S'Univ Iowa, Dept Sociol, W140 SSH, Iowa City, IA 52242 USA.'
p963
sa(dp964
g2
S'Harvard University'
p965
sg4
S'NEW ENGLAND JOURNAL OF MEDICINE'
p966
sg6
S'Landrigan, Christopher P.'
p967
sg8
I2010
sg9
S'Brigham & Womens Hosp, Dept Med, Div Sleep Med, 221 Longwood Ave, Boston, MA 02115 USA.'
p968
sa(dp969
g2
S'University of Virginia'
p970
sg4
S'PROCEEDINGS OF THE NATIONAL ACADEMY OF SCIENCES OF THE UNITED STATES OF AMERICA'
p971
sg6
S'Plog, Stephen'
p972
sg8
I2010
sg9
S'Univ Virginia, Dept Anthropol, Charlottesville, VA 22904 USA.'
p973
sa(dp974
g2
S'Los Alamos National Laboratory;United States Department of Energy (DOE)'
p975
sg4
S'PLOS ONE'
p976
sg6
S'Bettencourt, Luis M. A.'
p977
sg8
I2010
sg9
S'Los Alamos Natl Lab, Div Theoret, Los Alamos, NM USA.'
p978
sa(dp979
g2
S'Harvard University'
p980
sg4
S'ANNALS OF EPIDEMIOLOGY'
p981
sg6
S'James-Todd, Tamarra'
p982
sg8
I2010
sg9
S'Brigham & Womens Hosp, Connors Ctr Womens Hlth & Gender Biol, 1620 Tremont St,3rd Floor, Boston, MA 02120 USA.'
p983
sa(dp984
g2
S'University of Houston;University of Houston System'
p985
sg4
S'INTERNATIONAL JOURNAL OF INTERCULTURAL RELATIONS'
p986
sg6
S'Luksyte, Aleksandra'
p987
sg8
I2010
sg9
S'Univ Houston, 126 Heyne Bldg, Houston, TX 77004 USA.'
p988
sa(dp989
g2
S'Indiana University Bloomington;Indiana University System'
p990
sg4
S'SOCIAL SCIENCE RESEARCH'
p991
sg6
S'Cha, Youngjoo'
p992
sg8
I2010
sg9
S'Indiana Univ, Dept Sociol, 744 Ballantine Hall, Bloomington, IN 47405 USA.'
p993
sa(dp994
g2
S'Syracuse University'
p995
sg4
S'ADDICTIVE BEHAVIORS'
p996
sg6
S'Prince, Mark A.'
p997
sg8
I2010
sg9
S'Syracuse Univ, Ctr Hlth & Behav, 430 Huntington Hall, Syracuse, NY 13244 USA.'
p998
sa(dp999
g2
S'NIH National Institute on Aging (NIA);NIH National Institute on Drug Abuse (NIDA);National Institutes of Health (NIH) - USA'
p1000
sg4
S'AMERICAN JOURNAL OF DRUG AND ALCOHOL ABUSE'
p1001
sg6
S'Copersino, Marc L.'
p1002
sg8
I2010
sg9
S'Natl Inst Drug Abuse, Intramural Res Program, NIH, 251 Bayview Blvd, Baltimore, MD 21224 USA.'
p1003
sa(dp1004
g2
S'University of California San Diego;University of California System'
p1005
sg4
S'AMERICAN JOURNAL OF DRUG AND ALCOHOL ABUSE'
p1006
sg6
S'Semple, Shirley J.'
p1007
sg8
I2010
sg9
S'Univ Calif San Diego, Dept Psychiat 0680, 9500 Gilman Dr, La Jolla, CA 92093 USA.'
p1008
sa(dp1009
g2
S'University of Pennsylvania'
p1010
sg4
S'AMERICAN JOURNAL OF PUBLIC HEALTH'
p1011
sg6
S'Elo, Irma T.'
p1012
sg8
I2010
sg9
S'Univ Penn, Ctr Populat Studies, 3718 Locust Walk, Philadelphia, PA 19143 USA.'
p1013
sa(dp1014
g2
g17
sg4
S'AMERICAN JOURNAL OF PUBLIC HEALTH'
p1015
sg6
S'Fredriksen-Goldsen, Karen I.'
p1016
sg8
I2010
sg9
S'4101 15th Ave NE,Box 354900, Seattle, WA 98105 USA.'
p1017
sa(dp1018
g2
S'Emory University'
p1019
sg4
S'AMERICAN JOURNAL OF TROPICAL MEDICINE AND HYGIENE'
p1020
sg6
S'Leeds, Ira L.'
p1021
sg8
I2010
sg9
S'Emory Univ, Sch Med, 937 Ladson Court, Decatur, GA 30033 USA.'
p1022
sa(dp1023
g2
S'New York University'
p1024
sg4
S'ANNALS OF EPIDEMIOLOGY'
p1025
sg6
S'Torche, Florencia'
p1026
sg8
I2010
sg9
S'NYU, Dept Sociol, New York, NY 10003 USA.'
p1027
sa(dp1028
g2
S'Harvard University'
p1029
sg4
S'ANNALS OF EPIDEMIOLOGY'
p1030
sg6
S'Glymour, M. Maria'
p1031
sg8
I2010
sg9
S'Harvard Univ, Sch Publ Hlth, Dept Soc Human Dev & Hlth, Boston, MA 02114 USA.'
p1032
sa(dp1033
g2
S'University of California Los Angeles;University of California System'
p1034
sg4
S'BEHAVIORAL ECOLOGY AND SOCIOBIOLOGY'
p1035
sg6
S'Silk, Joan B.'
p1036
sg8
I2010
sg9
S'Univ Calif Los Angeles, Dept Anthropol, Los Angeles, CA 90095 USA.'
p1037
sa(dp1038
g2
S'University of Missouri Columbia;University of Missouri System'
p1039
sg4
S'BREAST CANCER RESEARCH AND TREATMENT'
p1040
sg6
S'Kapp, Julie M.'
p1041
sg8
I2010
sg9
S'Univ Missouri, Dept Family & Community Med, MA306 Med Sci Bldg,1 Hosp Dr, Columbia, MO 65212 USA.'
p1042
sa(dp1043
g2
S'Cancer Prevention Institute of California'
p1044
sg4
S'CANCER EPIDEMIOLOGY BIOMARKERS & PREVENTION'
p1045
sg6
S'Clarke, Christina A.'
p1046
sg8
I2010
sg9
S'Canc Prevent Inst Calif, 2201 Walnut Ave,Suite 300, Fremont, CA 94538 USA.'
p1047
sa(dp1048
g2
S'University of South Carolina;University of South Carolina Columbia;University of South Carolina System'
p1049
sg4
S'CONTEMPORARY CLINICAL TRIALS'
p1050
sg6
S'Wilson, Dawn K.'
p1051
sg8
I2010
sg9
S'Univ S Carolina, Dept Psychol, Columbia, SC 29208 USA.'
p1052
sa(dp1053
g2
S'Yale University'
p1054
sg4
S'CULTURAL SOCIOLOGY'
p1055
sg6
S'Alexander, Jeffrey C.'
p1056
sg8
I2010
sg9
S'Yale Univ, Ctr Cultural Sociol, POB 208265, New Haven, CT 06520 USA.'
p1057
sa(dp1058
g2
S'University of Southern California'
p1059
sg4
S'DRUG AND ALCOHOL DEPENDENCE'
p1060
sg6
S'Wenzel, Suzanne L.'
p1061
sg8
I2010
sg9
S'Univ So Calif, Sch Social Work, 669 W 34th St,MRF 315, Los Angeles, CA 90089 USA.'
p1062
sa(dp1063
g2
S'University of California Davis;University of California System'
p1064
sg4
S'FOOD AND CHEMICAL TOXICOLOGY'
p1065
sg6
S'Wu, Xiangmei (May'
p1066
sg8
I2010
sg9
S'Univ Calif Davis, Dept Publ Hlth Sci, 1 Shields Ave,TB 169, Davis, CA 95616 USA.'
p1067
sa(dp1068
g2
g17
sg4
S'INTERNATIONAL JOURNAL OF EATING DISORDERS'
p1069
sg6
S'Becker, Anne E.'
p1070
sg8
I2010
sg9
S'641 Huntington Ave, Boston, MA 02115 USA.'
p1071
sa(dp1072
g2
S'University of Michigan;University of Michigan System'
p1073
sg4
S'INTERNATIONAL SOCIOLOGY'
p1074
sg6
S'Mohai, Paul'
p1075
sg8
I2010
sg9
S'Univ Michigan, Sch Nat Resources & Environm, Ann Arbor, MI 48109 USA.'
p1076
sa(dp1077
g2
S'University of Bielefeld'
p1078
sg4
S'INTERNATIONAL SOCIOLOGY'
p1079
sg6
S'Passoth, Jan-Hendrik'
p1080
sg8
I2010
sg9
S'Univ Bielefeld, Dept Sociol, POB 10 01 31, D-33501 Bielefeld, Germany.'
p1081
sa(dp1082
g2
g17
sg4
S'JOURNAL OF ABNORMAL PSYCHOLOGY'
p1083
sg6
S'Aguilera, Adrian'
p1084
sg8
I2010
sg9
S'1001 Portero Ave,Suite 7M, San Francisco, CA 94110 USA.'
p1085
sa(dp1086
g2
g17
sg4
S'JOURNAL OF BIOSOCIAL SCIENCE'
p1087
sg6
S'Larsen, Ulla'
p1088
sg8
I2010
sg9
S'Ibis Reprod Hlth, Cambridge, MA USA.'
p1089
sa(dp1090
g2
g17
sg4
S'JOURNAL OF STUDIES ON ALCOHOL AND DRUGS'
p1091
sg6
S'Longabaugh, Richard'
p1092
sg8
I2010
sg9
S'321 Newman Ave, Rumford, RI 02916 USA.'
p1093
sa(dp1094
g2
S'University of California San Francisco;University of California System'
p1095
sg4
S'JOURNAL OF UROLOGY'
p1096
sg6
S'Porten, Sima P.'
p1097
sg8
I2010
sg9
S'Univ Calif San Francisco, Dept Urol, Helen Diller Family Comprehens Canc Ctr, 1600 Divisadero St,Box 1695, San Francisco, CA 94143 USA.'
p1098
sa(dp1099
g2
S'Arizona State University'
p1100
sg4
S'NATURAL RESOURCE MODELING'
p1101
sg6
S'Rogers, Bruce'
p1102
sg8
I2010
sg9
S'Arizona State Univ, Sch Human Evolut & Social Change, POB 871904, Tempe, AZ 85287 USA.'
p1103
sa(dp1104
g2
S'University of Alabama System;University of Alabama Tuscaloosa'
p1105
sg4
S'PAIN'
p1106
sg6
S'Day, Melissa A.'
p1107
sg8
I2010
sg9
S'Univ Alabama, Dept Psychol, Box 870356, Tuscaloosa, AL 35487 USA.'
p1108
sa(dp1109
g2
S'United States Army;United States Department of Defense'
p1110
sg4
S'SLEEP'
p1111
sg6
S'Rupp, Tracy L.'
p1112
sg8
I2010
sg9
S'Walter Reed Army Inst Res, Dept Behav Biol, Behav Biol Branch, Ctr Mil Psychiat & Neurosci, Rm 2w88,503 Robert Grant Ave, Silver Spring, MD 20910 USA.'
p1113
sa(dp1114
g2
S'Mississippi State University'
p1115
sg4
S'SOCIAL PROBLEMS'
p1116
sg6
S'Hughey, Matthew W.'
p1117
sg8
I2010
sg9
S'Mississippi State Univ, Dept Sociol, 207 Bowen Hall,POB C, Mississippi State, MS 39762 USA.'
p1118
sa(dp1119
g2
S'Arizona State University'
p1120
sg4
S'SOCIAL SCIENCE RESEARCH'
p1121
sg6
S'Eason, John'
p1122
sg8
I2010
sg9
S'Arizona State Univ, Sch Criminol & Criminal Justice, 411 N Cent Ave,Suite 600, Phoenix, AZ 85004 USA.'
p1123
sa(dp1124
g2
S'University of Pennsylvania'
p1125
sg4
S'SOCIOLOGICAL REVIEW'
p1126
sg6
S'Collins, Randall'
p1127
sg8
I2010
sg9
S'Univ Penn, Dept Criminol, Philadelphia, PA 19104 USA.'
p1128
sa(dp1129
g2
S'Emory University'
p1130
sg4
S'THEORY AND SOCIETY'
p1131
sg6
S'Franzosi, Roberto P.'
p1132
sg8
I2010
sg9
S'Emory Univ, Dept Sociol, Program Linguist, 1555 Dickey Dr, Atlanta, GA 30322 USA.'
p1133
sa(dp1134
g2
S'University of Notre Dame'
p1135
sg4
S'THEORY AND SOCIETY'
p1136
sg6
S'Lizardo, Omar'
p1137
sg8
I2010
sg9
S'Univ Notre Dame, Dept Sociol, 810 Flanner Hall, Notre Dame, IN 46556 USA.'
p1138
sa(dp1139
g2
S'Northwestern University'
p1140
sg4
S'PLOS ONE'
p1141
sg6
S'Saavedra, Serguei'
p1142
sg8
I2010
sg9
S'Northwestern Univ, NW Inst Complex Syst, Evanston, IL 60208 USA.'
p1143
sa(dp1144
g2
S'RAND Corporation'
p1145
sg4
S'PLOS ONE'
p1146
sg6
S'Yoong, Joanne'
p1147
sg8
I2010
sg9
S'RAND Corp, Arlington, VA USA.'
p1148
sa(dp1149
g2
S"Saint John's University"
p1150
sg4
S'ADDICTIVE BEHAVIORS'
p1151
sg6
S'Kong, Grace'
p1152
sg8
I2010
sg9
S'St Johns Univ, Dept Psychol, 8000 Utopia Pkwy, Jamaica, NY 11439 USA.'
p1153
sa(dp1154
g2
g17
sg4
S'ADDICTIVE BEHAVIORS'
p1155
sg6
S'Perkins, H. Wesley'
p1156
sg8
I2010
sg9
S'Hobart & William Smith Coll, Dept Anthropol & Sociol, 214 Stern Hall, Geneva, NY 14456 USA.'
p1157
sa(dp1158
g2
S'University of Texas Dallas;University of Texas Southwestern Medical Center Dallas'
p1159
sg4
S'ALCOHOLISM-CLINICAL AND EXPERIMENTAL RESEARCH'
p1160
sg6
S'Caetano, Raul'
p1161
sg8
I2010
sg9
S'Univ Texas Dallas, Sch Publ Hlth, Dallas Reg Campus,6011 Harry Hines Blvd,V8-112, Dallas, TX 75390 USA.'
p1162
sa(dp1163
g2
S'University of Massachusetts Boston;University of Massachusetts System'
p1164
sg4
S'AMERICAN JOURNAL OF ECONOMICS AND SOCIOLOGY'
p1165
sg6
S'Nelson, Julie A.'
p1166
sg8
I2010
sg9
S'Univ Massachusetts, Dept Econ, Boston, MA 02125 USA.'
p1167
sa(dp1168
g2
S"Saint John's University"
p1169
sg4
S'AMERICAN JOURNAL OF HYPERTENSION'
p1170
sg6
S'Schoenthaler, Antoinette M.'
p1171
sg8
I2010
sg9
S'St Johns Univ, Dept Psychol, New York, NY USA.'
p1172
sa(dp1173
g2
S'Centers for Disease Control & Prevention - USA'
p1174
sg4
S'AMERICAN JOURNAL OF INDUSTRIAL MEDICINE'
p1175
sg6
S'Tak, SangWoo'
p1176
sg8
I2010
sg9
S'NIOSH, Ctr Dis Control & Prevent, Div Surveillance Hazard Evaluat & Field Studies, 4676 Columbia Pkwy,R-17, Cincinnati, OH 45226 USA.'
p1177
sa(dp1178
g2
S'University of California San Francisco;University of California System'
p1179
sg4
S'AMERICAN JOURNAL OF INDUSTRIAL MEDICINE'
p1180
sg6
S'Premji, Stephanie'
p1181
sg8
I2010
sg9
S'Univ Calif San Francisco, UC Berkeley Richmond Field Stn, Dept Med, 1301 S 46th St,Bldg 163, Richmond, CA 94804 USA.'
p1182
sa(dp1183
g2
S'Harvard University'
p1184
sg4
S'AMERICAN JOURNAL OF INDUSTRIAL MEDICINE'
p1185
sg6
S'Sembajwe, Grace'
p1186
sg8
I2010
sg9
S'Harvard Univ, Sch Publ Hlth, Dept Soc Human Dev & Hlth, Boston, MA 02115 USA.'
p1187
sa(dp1188
g2
S'University of California San Francisco;University of California System'
p1189
sg4
S'AMERICAN JOURNAL OF OBSTETRICS AND GYNECOLOGY'
p1190
sg6
S'Dehlendorf, Christine'
p1191
sg8
I2010
sg9
S'Univ Calif San Francisco, Sch Med, Dept Family & Community Med, San Francisco, CA 94143 USA.'
p1192
sa(dp1193
g2
S'University of Notre Dame'
p1194
sg4
S'AMERICAN JOURNAL OF PRIMATOLOGY'
p1195
sg6
S'Fuentes, Agustin'
p1196
sg8
I2010
sg9
S'Univ Notre Dame, Dept Anthropol, Notre Dame, IN 46556 USA.'
p1197
sa(dp1198
g2
S'California State University System;San Diego State University'
p1199
sg4
S'AMERICAN JOURNAL OF PRIMATOLOGY'
p1200
sg6
S'Riley, Erin P.'
p1201
sg8
I2010
sg9
S'San Diego State Univ, Dept Anthropol, San Diego, CA 92182 USA.'
p1202
sa(dp1203
g2
S'University of Chicago'
p1204
sg4
S'ANNALS OF BEHAVIORAL MEDICINE'
p1205
sg6
S'Hawkley, Louise C.'
p1206
sg8
I2010
sg9
S'Univ Chicago, Dept Psychol, 940 E 57th St, Chicago, IL 60637 USA.'
p1207
sa(dp1208
g2
S'City University of New York (CUNY) System;Hunter College (CUNY)'
p1209
sg4
S'ANNALS OF EPIDEMIOLOGY'
p1210
sg6
S'Dowd, Jennifer Beam'
p1211
sg8
I2010
sg9
S'CUNY Hunter Coll, Sch Publ Hlth, 425 E 25th St,Box 926, New York, NY 10010 USA.'
p1212
sa(dp1213
g2
S'Harvard University'
p1214
sg4
S'ANNALS OF HUMAN BIOLOGY'
p1215
sg6
S'Kramer, Karen L.'
p1216
sg8
I2010
sg9
S'Harvard Univ, Dept Human Evolutionary Biol, Cambridge, MA 02138 USA.'
p1217
sa(dp1218
g2
S'Texas A&M University System;West Texas A&M University'
p1219
sg4
S'ANNALS OF TOURISM RESEARCH'
p1220
sg6
S'Racherla, Pradeep'
p1221
sg8
I2010
sg9
S'W Texas A&M Univ, Coll Business, 2403 Russell Long Blvd Canyon, Canyon, TX 79016 USA.'
p1222
sa(dp1223
g2
S'University of Texas Austin'
p1224
sg4
S'CURRENT ANTHROPOLOGY'
p1225
sg6
S'Ali, Kamran Asdar'
p1226
sg8
I2010
sg9
S'Univ Texas Austin, Dept Anthropol, C-3200,1 Univ Stn, Austin, TX 78712 USA.'
p1227
sa(dp1228
g2
S'Texas Tech University;Texas Tech University System'
p1229
sg4
S'HUMAN BIOLOGY'
p1230
sg6
S'Hatfield, Virginia L.'
p1231
sg8
I2010
sg9
S'Texas Tech Univ, Dept Sociol Anthropol & Social Work, Lubbock, TX 79409 USA.'
p1232
sa(dp1233
g2
S'University of Alaska Fairbanks;University of Alaska System'
p1234
sg4
S'HUMAN BIOLOGY'
p1235
sg6
S'Berge, Anna'
p1236
sg8
I2010
sg9
S'Univ Alaska, Alaska Native Language Ctr, Fairbanks, AK 99701 USA.'
p1237
sa(dp1238
g2
S'Idaho State University'
p1239
sg4
S'HUMAN BIOLOGY'
p1240
sg6
S'Reedy-Maschner, Katherine'
p1241
sg8
I2010
sg9
S'Idaho State Univ, Dept Anthropol, Pocatello, ID 83209 USA.'
p1242
sa(dp1243
g2
S'California State University Long Beach;California State University System'
p1244
sg4
S'JOURNAL OF ARCHAEOLOGICAL SCIENCE'
p1245
sg6
S'Lipo, Carl P.'
p1246
sg8
I2010
sg9
S'Calif State Univ Long Beach, Dept Anthropol, 1250 Bellflower Blvd, Long Beach, CA 90840 USA.'
p1247
sa(dp1248
g2
S'Michigan State University'
p1249
sg4
S'JOURNAL OF CHILD NEUROLOGY'
p1250
sg6
S'Semrud-Clikeman, Margaret'
p1251
sg8
I2010
sg9
S'Michigan State Univ, 321 A W Fee Hall, E Lansing, MI 48824 USA.'
p1252
sa(dp1253
g2
S'University of Southern California'
p1254
sg4
S'JOURNAL OF CONTEMPORARY ETHNOGRAPHY'
p1255
sg6
S'Hondagneu-Sotelo, Pierrette'
p1256
sg8
I2010
sg9
S'Univ So Calif, Dept Sociol, Los Angeles, CA 90089 USA.'
p1257
sa(dp1258
g2
g17
sg4
S'JOURNAL OF NERVOUS AND MENTAL DISEASE'
p1259
sg6
S'Fontana, Alan'
p1260
sg8
I2010
sg9
S'VA Healthcare Syst, NE Program Evaluat Ctr, 950 Campbell Ave, West Haven, CT 06516 USA.'
p1261
sa(dp1262
g2
S'State University of New York (SUNY) System'
p1263
sg4
S'JOURNAL OF PEDIATRICS'
p1264
sg6
S'Liptak, Gregory S.'
p1265
sg8
I2010
sg9
S'SUNY Hlth Sci Ctr, Dept Pediat, 750 E Adams St, Syracuse, NY 13210 USA.'
p1266
sa(dp1267
g2
S'University System of Georgia;University of Georgia'
p1268
sg4
S'JOURNAL OF SUBSTANCE ABUSE TREATMENT'
p1269
sg6
S'Curtis, Sara L.'
p1270
sg8
I2010
sg9
S'Univ Georgia, Athens, GA 30602 USA.'
p1271
sa(dp1272
g2
g17
sg4
S'JOURNAL OF THE NATIONAL MEDICAL ASSOCIATION'
p1273
sg6
S'Joyner, Brandi L.'
p1274
sg8
I2010
sg9
S'111 Michigan Ave NW, Washington, DC 20010 USA.'
p1275
sa(dp1276
g2
S'University of Delaware'
p1277
sg4
S'JOURNAL OF THE NATIONAL MEDICAL ASSOCIATION'
p1278
sg6
S'Raffensperger, Sarah'
p1279
sg8
I2010
sg9
S'Univ Delaware, Dept Hlth Nutr & Exercise Sci, Newark, DE 19716 USA.'
p1280
sa(dp1281
g2
S'Arizona State University'
p1282
sg4
S'LANDSCAPE ECOLOGY'
p1283
sg6
S'Wu, Jianguo'
p1284
sg8
I2010
sg9
S'Arizona State Univ, Sch Life Sci, Sch Sustainabil, Tempe, AZ 85287 USA.'
p1285
sa(dp1286
g2
S'Harvard University;Massachusetts General Hospital;VA Boston Healthcare System'
p1287
sg4
S'MELANOMA RESEARCH'
p1288
sg6
S'Makredes, Maryanne'
p1289
sg8
I2010
sg9
S'Massachusetts Gen Hosp, Dept Dermatol, Clin Unit Res Trials & Outcomes Skin CURTIS, Clin Res Support Off, Worcester, MA USA.'
p1290
sa(dp1291
g2
S'College William & Mary'
p1292
sg4
S'TEACHING SOCIOLOGY'
p1293
sg6
S'Sohoni, Deenesh'
p1294
sg8
I2010
sg9
S'Coll William & Mary, Dept Sociol, POB 8795, Williamsburg, VA 23187 USA.'
p1295
sa(dp1296
g2
g17
sg4
S'TEACHING SOCIOLOGY'
p1297
sg6
S'Christiansen, Lars'
p1298
sg8
I2010
sg9
S'Augsburg Coll, Dept Sociol, CB 105,2211 Riverside Ave, Minneapolis, MN 55454 USA.'
p1299
sa(dp1300
g2
g17
sg4
S'TEACHING SOCIOLOGY'
p1301
sg6
S'Spalter-Roth, Roberta'
p1302
sg8
I2010
sg9
S'Amer Sociol Assoc, Dept Res & Dev, 1430 K St NW,Suite 600, Washington, DC 20005 USA.'
p1303
sa(dp1304
g2
S'New York University'
p1305
sg4
S'TEACHING SOCIOLOGY'
p1306
sg6
S'Persell, Caroline Hodges'
p1307
sg8
I2010
sg9
S'NYU, Dept Sociol, 295 Lafayette St,4th Floor, New York, NY 10012 USA.'
p1308
sa(dp1309
g2
S'George Washington University'
p1310
sg4
S'TEACHING SOCIOLOGY'
p1311
sg6
S'Eglitis, Daina S.'
p1312
sg8
I2010
sg9
S'George Washington Univ, Dept Sociol, 801 22nd St NW,Suite 409, Washington, DC 20052 USA.'
p1313
sa(dp1314
g2
S'University of Alaska Anchorage;University of Alaska System'
p1315
sg4
S'TEACHING SOCIOLOGY'
p1316
sg6
S'Edwards, Nelta M.'
p1317
sg8
I2010
sg9
S'Univ Alaska, Dept Sociol, 3211 Providence Dr, Anchorage, AK 99508 USA.'
p1318
sa(dp1319
g2
S'University of Illinois System;University of Illinois Urbana-Champaign'
p1320
sg4
S'LANDSCAPE AND URBAN PLANNING'
p1321
sg6
S'Matsuoka, Rodney H.'
p1322
sg8
I2010
sg9
S'Univ Illinois, Dept Landscape Architecture, 101 Temple Buell Hall,MC 620,611 Taft Dr, Champaign, IL 61820 USA.'
p1323
sa(dp1324
g2
S'Buffalo State College;State University of New York (SUNY) System'
p1325
sg4
S'PSYCHIATRY RESEARCH'
p1326
sg6
S'Kong, Yuanyuan'
p1327
sg8
I2010
sg9
S'SUNY Coll Buffalo, Dept Sociol, 1300 Elmwood Ave, Buffalo, NY 14222 USA.'
p1328
sa(dp1329
g2
S'State University of New York (SUNY) Downstate Medical Center;State University of New York (SUNY) System'
p1330
sg4
S'AMERICAN JOURNAL OF EPIDEMIOLOGY'
p1331
sg6
S'Roberts, Calpurnyia B.'
p1332
sg8
I2010
sg9
S'Suny Downstate Med Ctr, Arthur Ashe Inst Urban Hlth, Brooklyn Hlth Dispar Ctr, 450 Clarkson Ave, Brooklyn, NY 11203 USA.'
p1333
sa(dp1334
g2
g17
sg4
S'PHILOSOPHICAL TRANSACTIONS OF THE ROYAL SOCIETY B-BIOLOGICAL SCIENCES'
p1335
sg6
S'Connor, Richard C.'
p1336
sg8
I2010
sg9
S'UMASS Dartmouth, N Dartmouth, MA 02747 USA.'
p1337
sa(dp1338
g2
S'Emory University'
p1339
sg4
S'PHILOSOPHICAL TRANSACTIONS OF THE ROYAL SOCIETY B-BIOLOGICAL SCIENCES'
p1340
sg6
S'de Waal, Frans B. M.'
p1341
sg8
I2010
sg9
S'Emory Univ, Yerkes Natl Primate Res Ctr, Atlanta, GA 30322 USA.'
p1342
sa(dp1343
g2
S'University of Wisconsin Madison;University of Wisconsin System'
p1344
sg4
S'PROCEEDINGS OF THE ROYAL SOCIETY B-BIOLOGICAL SCIENCES'
p1345
sg6
S'Seltzer, Leslie J.'
p1346
sg8
I2010
sg9
S'Univ Wisconsin, Dept Psychol, Madison, WI 53705 USA.'
p1347
sa(dp1348
g2
S'University of Nebraska Lincoln;University of Nebraska System'
p1349
sg4
S'ADDICTION'
p1350
sg6
S'Shell, Duane F.'
p1351
sg8
I2010
sg9
S'Univ Nebraska, Dept Educ Psychol, POB 880345, Lincoln, NE 68588 USA.'
p1352
sa(dp1353
g2
S'Medical University of South Carolina'
p1354
sg4
S'AMERICAN JOURNAL OF CARDIOLOGY'
p1355
sg6
S'Diaz, Vanessa A.'
p1356
sg8
I2010
sg9
S'Med Univ S Carolina, Dept Family Med, Charleston, SC 29425 USA.'
p1357
sa(dp1358
g2
S'University of California San Francisco;University of California System'
p1359
sg4
S'AMERICAN JOURNAL OF INDUSTRIAL MEDICINE'
p1360
sg6
S'Premji, Stephanie'
p1361
sg8
I2010
sg9
S'Univ Calif San Francisco, UC Berkeley Richmond Field Stn, 1301 S 46th St,Bldg 163, Richmond, CA 94804 USA.'
p1362
sa(dp1363
g2
S'University of Iowa'
p1364
sg4
S'AMERICAN JOURNAL OF MEDICAL GENETICS PART B-NEUROPSYCHIATRIC GENETICS'
p1365
sg6
S'Williams, Janet K.'
p1366
sg8
I2010
sg9
S'Univ Iowa, Coll Med, Dept Psychiat, 305 MEB, Iowa City, IA 52242 USA.'
p1367
sa(dp1368
g2
S'University of California San Francisco;University of California System'
p1369
sg4
S'AMERICAN JOURNAL OF PREVENTIVE MEDICINE'
p1370
sg6
S'Blumenshine, Philip'
p1371
sg8
I2010
sg9
S'Univ Calif San Francisco, Dept Family & Community Med, Ctr Social Dispar Hlth, 3333 Calif St,Suite 365,UCSF Box 0943, San Francisco, CA 94118 USA.'
p1372
sa(dp1373
g2
S'Consiglio Nazionale delle Ricerche (CNR)'
p1374
sg4
S'ANTHROZOOS'
p1375
sg6
S'Pagani, Camilla'
p1376
sg8
I2010
sg9
S'CNR, Inst Cognit Sci & Technol, Via San Martino Battaglia 44, I-00185 Rome, Italy.'
p1377
sa(dp1378
g2
S'State University of New York (SUNY) Stony Brook;State University of New York (SUNY) System'
p1379
sg4
S'BRITISH JOURNAL OF SOCIOLOGY'
p1380
sg6
S'Levy, Daniel'
p1381
sg8
I2010
sg9
S'SUNY Stony Brook, Stony Brook, NY 11794 USA.'
p1382
sa(dp1383
g2
S'University of Washington;University of Washington Seattle'
p1384
sg4
S'CLIMATIC CHANGE'
p1385
sg6
S'Binder, Lara C. Whitely'
p1386
sg8
I2010
sg9
S'Univ Washington, JISAO CSES Climate Impacts Grp, Seattle, WA 98195 USA.'
p1387
sa(dp1388
g2
g17
sg4
S'ENVIRONMENTAL MANAGEMENT'
p1389
sg6
S'Mukherjee, Nibedita'
p1390
sg8
I2010
sg9
S'905 N7th St,Apt 18, Lafayette, IN 47904 USA.'
p1391
sa(dp1392
g2
S'Albert Einstein College of Medicine;Yeshiva University'
p1393
sg4
S'ETHNICITY & DISEASE'
p1394
sg6
S'Chambers, Earle C.'
p1395
sg8
I2010
sg9
S'Yeshiva Univ, Albert Einstein Coll Med, Dept Family & Social Med, Jack & Pearl Resnick Campus,1300 Morris Pk Ave,Ma, Bronx, NY 10461 USA.'
p1396
sa(dp1397
g2
S'Morehouse School of Medicine'
p1398
sg4
S'ETHNICITY & DISEASE'
p1399
sg6
S'Baltrus, Peter T.'
p1400
sg8
I2010
sg9
S'Morehouse Sch Med, Dept Community Hlth & Prevent Med, Natl Ctr Primary Care, Atlanta, GA 30310 USA.'
p1401
sa(dp1402
g2
g17
sg4
S'ETHNICITY & DISEASE'
p1403
sg6
S'Dubbert, Patricia M.'
p1404
sg8
I2010
sg9
S'MIRECC 16 MIR,2200 Ft Roots Dr,Bldg 58, N Little Rock, AR 72114 USA.'
p1405
sa(dp1406
g2
S'Penn State University;Pennsylvania Commonwealth System of Higher Education (PCSHE)'
p1407
sg4
S'EVOLUTIONARY ANTHROPOLOGY'
p1408
sg6
S'Weiss, Kenneth M.'
p1409
sg8
I2010
sg9
S'Penn State Univ, University Pk, PA 16802 USA.'
p1410
sa(dp1411
g2
S'University of California Davis;University of California System'
p1412
sg4
S'FOOD AND NUTRITION BULLETIN'
p1413
sg6
S'Knueppel, Danielle'
p1414
sg8
I2010
sg9
S'Univ Calif Davis, Dept Nutr, Davis, CA 95616 USA.'
p1415
sa(dp1416
g2
S'Duke University'
p1417
sg4
S'HUMAN GENETICS'
p1418
sg6
S'Jonassaint, Charles R.'
p1419
sg8
I2010
sg9
S'Duke Univ, Inst Genome Sci & Policy, LSRC B Wing,Room 320B,450 Res Dr,Box 91009, Durham, NC 27708 USA.'
p1420
sa(dp1421
g2
S'Miami University'
p1422
sg4
S'INTERNATIONAL JOURNAL OF CULTURAL STUDIES'
p1423
sg6
S'Harrington, C. Lee'
p1424
sg8
I2010
sg9
S'Miami Univ, Oxford, OH 45056 USA.'
p1425
sa(dp1426
g2
g17
sg4
S'JOURNAL OF PSYCHOACTIVE DRUGS'
p1427
sg6
S'Golub, Andrew'
p1428
sg8
I2010
sg9
S'Natl Dev & Res Inst Inc, 47 Prospect Pkwy, Burlington, VT 05401 USA.'
p1429
sa(dp1430
g2
S'Indiana University System;Indiana University-Purdue University Indianapolis'
p1431
sg4
S'JOURNAL OF THE AMERICAN DENTAL ASSOCIATION'
p1432
sg6
S'Maupome, Gerardo'
p1433
sg8
I2010
sg9
S'Indiana Univ, Sch Dent, Dept Prevent & Community Dent, 415 Lansing St, Indianapolis, IN 46202 USA.'
p1434
sa(dp1435
g2
S'Ohio State University'
p1436
sg4
S'NEUROSCIENCE AND BIOBEHAVIORAL REVIEWS'
p1437
sg6
S'Kiecolt-Glaser, Janice K.'
p1438
sg8
I2010
sg9
S'Ohio State Univ, Coll Med, Dept Psychiat, 1670 Upham Dr, Columbus, OH 43210 USA.'
p1439
sa(dp1440
g2
S'State University of New York (SUNY) Stony Brook;State University of New York (SUNY) System'
p1441
sg4
S'PREVENTIVE MEDICINE'
p1442
sg6
S'Hale, Lauren'
p1443
sg8
I2010
sg9
S'SUNY Stony Brook, Grad Program Publ Hlth, Stony Brook, NY 11794 USA.'
p1444
sa(dp1445
g2
S'Northwestern University'
p1446
sg4
S'QUALITATIVE SOCIOLOGY'
p1447
sg6
S'Rivera, Lauren A.'
p1448
sg8
I2010
sg9
S'Northwestern Univ, Kellogg Sch Management, 2001 Sheridan Rd, Evanston, IL 60208 USA.'
p1449
sa(dp1450
g2
S'Harvard University'
p1451
sg4
S'RISK ANALYSIS'
p1452
sg6
S'Factor, Roni'
p1453
sg8
I2010
sg9
S'Harvard Univ, Sch Publ Hlth, Dept Global Hlth & Populat, 665 Huntington Ave, Boston, MA 02115 USA.'
p1454
sa(dp1455
g2
S'University of Massachusetts Amherst;University of Massachusetts System'
p1456
sg4
S'SEXUALITY RESEARCH AND SOCIAL POLICY'
p1457
sg6
S'Trivette, Shawn A.'
p1458
sg8
I2010
sg9
S'Univ Massachusetts, Dept Sociol, 200 Hicks Way, Amherst, MA 01003 USA.'
p1459
sa(dp1460
g2
S'University of North Carolina;University of North Carolina Chapel Hill'
p1461
sg4
S'SOCIAL FORCES'
p1462
sg6
S'Bollen, Kenneth A.'
p1463
sg8
I2010
sg9
S'Univ N Carolina, Dept Sociol, CB 3210 Hamilton Hall, Chapel Hill, NC 27599 USA.'
p1464
sa(dp1465
g2
g17
sg4
S'SOCIAL FORCES'
p1466
sg6
S'Shirley, Carla D.'
p1467
sg8
I2010
sg9
S'Memphis City Sch, 2397 Avery Ave, Memphis, TN 38112 USA.'
p1468
sa(dp1469
g2
S'University of Pennsylvania'
p1470
sg4
S'SOCIAL SCIENCE JOURNAL'
p1471
sg6
S'Baek, Young Min'
p1472
sg8
I2010
sg9
S'Univ Penn, Annenberg Sch Commun, 3620 Walnut St, Philadelphia, PA 19104 USA.'
p1473
sa(dp1474
g2
S'Northern Illinois University'
p1475
sg4
S'SOCIETY'
p1476
sg6
S'Ferris, Kerry O.'
p1477
sg8
I2010
sg9
S'No Illinois Univ, Dept Sociol, De Kalb, IL 60115 USA.'
p1478
sa(dp1479
g2
g17
sg4
S'SOCIOLOGICAL FORUM'
p1480
sg6
S'Cherry, Elizabeth'
p1481
sg8
I2010
sg9
S'Manhattanville Coll, Dept Sociol & Anthropol, Dammann Hall,2900 Purchase St, Purchase, NY 10577 USA.'
p1482
sa(dp1483
g2
S'Villanova University'
p1484
sg4
S'SOCIOLOGICAL FORUM'
p1485
sg6
S'Eckstein, Rick'
p1486
sg8
I2010
sg9
S'Villanova Univ, Dept Sociol, Villanova, PA 19085 USA.'
p1487
sa(dp1488
g2
g17
sg4
S'SOCIOLOGICAL QUARTERLY'
p1489
sg6
S'Stall, Susan'
p1490
sg8
I2010
sg9
S'NE Illinois Univ, Dept Sociol, 5500 N St Louis Ave, Chicago, IL 60625 USA.'
p1491
sa(dp1492
g2
S'Nevada System of Higher Education (NSHE);University of Nevada Reno'
p1493
sg4
S'SOCIOLOGICAL QUARTERLY'
p1494
sg6
S'Peoples, Clayton D.'
p1495
sg8
I2010
sg9
S'Univ Nevada, Dept Sociol, Reno, NV 89557 USA.'
p1496
sa(dp1497
g2
S'University of Pennsylvania'
p1498
sg4
S'SOCIOLOGICAL THEORY'
p1499
sg6
S'DiCicco-Bloom, Benjamin'
p1500
sg8
I2010
sg9
S'Univ Penn, Dept Sociol, 3718 Locust Walk,113 McNeil Bldg, Philadelphia, PA 19104 USA.'
p1501
sa(dp1502
g2
S'Fordham University'
p1503
sg4
S'SOCIOLOGICAL THEORY'
p1504
sg6
S'Bush, Evelyn'
p1505
sg8
I2010
sg9
S'Fordham Univ, Dept Sociol & Anthropol, 402D Dealy Hall, Bronx, NY 10458 USA.'
p1506
sa(dp1507
g2
S'Yeshiva University'
p1508
sg4
S'SOCIOLOGICAL THEORY'
p1509
sg6
S'Garcelon, Marc'
p1510
sg8
I2010
sg9
S'Yeshiva Univ, Dept Sociol, 500 W 185th St, New York, NY 10033 USA.'
p1511
sa(dp1512
g2
S'University of Tampa'
p1513
sg4
S'SOCIOLOGY OF RELIGION'
p1514
sg6
S'Cragun, Ryan T.'
p1515
sg8
I2010
sg9
S'Univ Tampa, 401 W Kennedy Blvd, Tampa, FL 33606 USA.'
p1516
sa(dp1517
g2
S'University of Wisconsin Madison;University of Wisconsin System'
p1518
sg4
S'THEORY AND SOCIETY'
p1519
sg6
S'Ermakoff, Ivan'
p1520
sg8
I2010
sg9
S'Univ Wisconsin, Dept Sociol, Madison, WI 53706 USA.'
p1521
sa(dp1522
g2
g17
sg4
S'VIOLENCE AGAINST WOMEN'
p1523
sg6
S'Sadusky, Jane M.'
p1524
sg8
I2010
sg9
S'Battered Womens Justice Project, 1801 Nicollet Ave S,Suite 102, Minneapolis, MN 55403 USA.'
p1525
sa(dp1526
g2
S'University of Connecticut'
p1527
sg4
S'PROCEEDINGS OF THE NATIONAL ACADEMY OF SCIENCES OF THE UNITED STATES OF AMERICA'
p1528
sg6
S'Munro, Natalie D.'
p1529
sg8
I2010
sg9
S'Univ Connecticut, Dept Anthropol, Storrs, CT 06269 USA.'
p1530
sa(dp1531
g2
S'University of New Mexico'
p1532
sg4
S'JOURNAL OF THEORETICAL BIOLOGY'
p1533
sg6
S'Hooper, Paul L.'
p1534
sg8
I2010
sg9
S'Univ New Mexico, Dept Anthropol, MSC01 1040, Albuquerque, NM 87131 USA.'
p1535
sa(dp1536
g2
S'Valparaiso University'
p1537
sg4
S'JOURNAL OF THEORETICAL BIOLOGY'
p1538
sg6
S'Maxin, D.'
p1539
sg8
I2010
sg9
S'Valparaiso Univ, Dept Math & Comp Sci, 1900 Chapel Dr, Valparaiso, IN 46383 USA.'
p1540
sa(dp1541
g2
S'University of Chicago'
p1542
sg4
S'SCIENCE TRANSLATIONAL MEDICINE'
p1543
sg6
S'Ross, Lainie Friedman'
p1544
sg8
I2010
sg9
S'Univ Chicago, Dept Pediat, Chicago, IL 60637 USA.'
p1545
sa(dp1546
g2
S'Florida State University System;University of Florida'
p1547
sg4
S'STATISTICS IN MEDICINE'
p1548
sg6
S'Brumback, Babette A.'
p1549
sg8
I2010
sg9
S'Univ Florida, Dept Epidemiol & Biostat, Coll Publ Hlth & Hlth Profess, Gainesville, FL 32611 USA.'
p1550
sa(dp1551
g2
S'Johns Hopkins University'
p1552
sg4
S'ACTA PSYCHIATRICA SCANDINAVICA'
p1553
sg6
S'Maulik, P. K.'
p1554
sg8
I2010
sg9
S'Johns Hopkins Sch Publ Hlth, Dept Mental Hlth, Hampton House,624 N,Broadway St, Baltimore, MD 21205 USA.'
p1555
sa(dp1556
g2
S'Harvard University'
p1557
sg4
S'AMERICAN JOURNAL OF EPIDEMIOLOGY'
p1558
sg6
S'Kim, Daniel'
p1559
sg8
I2010
sg9
S'Harvard Univ, Sch Publ Hlth, Dept Soc Human Dev & Hlth, 677 Huntington Ave,7th Floor, Boston, MA 02115 USA.'
p1560
sa(dp1561
g2
S'University of Wyoming'
p1562
sg4
S'AMERICAN JOURNAL OF PHYSICAL ANTHROPOLOGY'
p1563
sg6
S'Murphy, Melissa S.'
p1564
sg8
I2010
sg9
S'Univ Wyoming, Dept Anthropol, Bldg 3431, Laramie, WY 82070 USA.'
p1565
sa(dp1566
g2
S'University of Pennsylvania'
p1567
sg4
S'AMERICAN SOCIOLOGICAL REVIEW'
p1568
sg6
S'Wilde, Melissa J.'
p1569
sg8
I2010
sg9
S'Univ Penn, Dept Sociol, 3718 Locust Walk,113 McNeil Bldg, Philadelphia, PA 19104 USA.'
p1570
sa(dp1571
g2
S'University of California Los Angeles;University of California System'
p1572
sg4
S'ANNALS OF EPIDEMIOLOGY'
p1573
sg6
S'Karlamangla, Arun S.'
p1574
sg8
I2010
sg9
S'UCLA Geriatr, 10945 Le Conte 2339, Los Angeles, CA 90095 USA.'
p1575
sa(dp1576
g2
S'University of Colorado Boulder;University of Colorado Health Science Center;University of Colorado System'
p1577
sg4
S'ARCHIVES OF PEDIATRICS & ADOLESCENT MEDICINE'
p1578
sg6
S'Taussig, Heather N.'
p1579
sg8
I2010
sg9
S'Univ Colorado, Sch Med, Dept Pediat, Gary Pavil Childrens Hosp,Kempe Ctr, Anschutz Med Campus,13123 E 16th Ave,B 390, Aurora, CO 80045 USA.'
p1580
sa(dp1581
g2
S'California State University Fullerton;California State University System'
p1582
sg4
S'ARCHIVES OF SEXUAL BEHAVIOR'
p1583
sg6
S'Lippa, Richard A.'
p1584
sg8
I2010
sg9
S'Calif State Univ Fullerton, Dept Psychol, Fullerton, CA 92634 USA.'
p1585
sa(dp1586
g2
S'Pennsylvania Commonwealth System of Higher Education (PCSHE);University of Pittsburgh'
p1587
sg4
S'ARTHRITIS CARE & RESEARCH'
p1588
sg6
S'Piva, Sara R.'
p1589
sg8
I2010
sg9
S'Univ Pittsburgh, Dept Phys Therapy, 6035 Forbes Tower, Pittsburgh, PA 15260 USA.'
p1590
sa(dp1591
g2
S'Washington University (WUSTL)'
p1592
sg4
S'CHILD PSYCHIATRY & HUMAN DEVELOPMENT'
p1593
sg6
S'Kuhlberg, Jill A.'
p1594
sg8
I2010
sg9
S'Washington Univ, George Warren Brown Sch Social Work, Campus Box 1196,1 Brookings Dr, St Louis, MO 63130 USA.'
p1595
sa(dp1596
g2
S'Rutgers State University'
p1597
sg4
S'CURRENT ANTHROPOLOGY'
p1598
sg6
S'Goldstein, Daniel M.'
p1599
sg8
I2010
sg9
S'Rutgers State Univ, 131 George St, New Brunswick, NJ 08901 USA.'
p1600
sa(dp1601
g2
S'Emory University'
p1602
sg4
S'CURRENT ANTHROPOLOGY'
p1603
sg6
S'Hadley, Craig'
p1604
sg8
I2010
sg9
S'Emory Univ, Dept Anthropol, Atlanta, GA 30322 USA.'
p1605
sa(dp1606
g2
S'University of California San Francisco;University of California System'
p1607
sg4
S'ENVIRONMENTAL SCIENCE & TECHNOLOGY'
p1608
sg6
S'Zota, Ami R.'
p1609
sg8
I2010
sg9
S'Univ Calif San Francisco, San Francisco, CA 94143 USA.'
p1610
sa(dp1611
g2
S'Howard University'
p1612
sg4
S'HUMAN BIOLOGY'
p1613
sg6
S'Keita, S. O. Y.'
p1614
sg8
I2010
sg9
S'Howard Univ Hosp, Natl Human Genome Ctr, Canc Ctr 615, 2041 Georgia Ave NW, Washington, DC 20060 USA.'
p1615
sa(dp1616
g2
g17
sg4
S'INTERNATIONAL REVIEW OF PSYCHIATRY'
p1617
sg6
S'Rodriguez, Jorge J.'
p1618
sg8
I2010
sg9
S'Pan Amer Hlth Org, Mental Hlth Disabil & Rehabil Project, 525 23rd St NW, Washington, DC 20037 USA.'
p1619
sa(dp1620
g2
S'Northern Arizona University'
p1621
sg4
S'JOURNAL OF CONTEMPORARY ETHNOGRAPHY'
p1622
sg6
S'Websdale, Neil'
p1623
sg8
I2010
sg9
S'No Arizona Univ, Bldg 65,S San Francisco St, Flagstaff, AZ 86011 USA.'
p1624
sa(dp1625
g2
g17
sg4
S'JOURNAL OF EPIDEMIOLOGY AND COMMUNITY HEALTH'
p1626
sg6
S'Stowe, Raymond P.'
p1627
sg8
I2010
sg9
S'Microgen Labs, 903 Texas Ave, La Marque, TX 77568 USA.'
p1628
sa(dp1629
g2
S'University of Arizona'
p1630
sg4
S'JOURNAL OF EXPERIMENTAL PSYCHOLOGY-GENERAL'
p1631
sg6
S'Kosloff, Spee'
p1632
sg8
I2010
sg9
S'Univ Arizona, Dept Psychol, POB 210068, Tucson, AZ 85721 USA.'
p1633
sa(dp1634
g2
S'VA Boston Healthcare System'
p1635
sg4
S'JOURNAL OF GENERAL INTERNAL MEDICINE'
p1636
sg6
S'Ayotte, Brian J.'
p1637
sg8
I2010
sg9
S'VA Boston Healthcare Syst, Ctr Org Leadership & Management Res, 150 S Huntington Ave 152M, Boston, MA 02130 USA.'
p1638
sa(dp1639
g2
S'University of Southern California'
p1640
sg4
S'JOURNAL OF MARRIAGE AND FAMILY'
p1641
sg6
S'Silverstein, Merril'
p1642
sg8
I2010
sg9
S'Univ So Calif, Davis Sch Gerontol, 3715 McClintock Ave, Los Angeles, CA 90089 USA.'
p1643
sa(dp1644
g2
g17
sg4
S'SEXUALLY TRANSMITTED DISEASES'
p1645
sg6
S'Lippman, Sheri A.'
p1646
sg8
I2010
sg9
S'50 Beale St,Suite 1200, San Francisco, CA 94105 USA.'
p1647
sa(dp1648
g2
S'Auburn University;Auburn University System'
p1649
sg4
S'SOUTHERN JOURNAL OF APPLIED FORESTRY'
p1650
sg6
S'Nagubadi, Rao V.'
p1651
sg8
I2010
sg9
S'Auburn Univ, Sch Forestry & Wildlife Sci 3301, Auburn, AL 36849 USA.'
p1652
sa(dp1653
g2
S'Ohio State University'
p1654
sg4
S'WORK AND OCCUPATIONS'
p1655
sg6
S'Lopez, Steven Henry'
p1656
sg8
I2010
sg9
S'Ohio State Univ, Dept Sociol, 238 Townshend Hall,1885 Neil Ave Mall, Columbus, OH 43210 USA.'
p1657
sa(dp1658
g2
S'University of California Berkeley;University of California System'
p1659
sg4
S'WORK AND OCCUPATIONS'
p1660
sg6
S'Villarreal, Ana T.'
p1661
sg8
I2010
sg9
S'Univ Calif Berkeley, Dept Sociol, Berkeley, CA 94720 USA.'
p1662
sa(dp1663
g2
g17
sg4
S'WORK AND OCCUPATIONS'
p1664
sg6
S'Sallaz, Jeffrey J.'
p1665
sg8
I2010
sg9
S'POB 210027, Tucson, AZ 85721 USA.'
p1666
sa(dp1667
g2
S'University of California Davis;University of California System'
p1668
sg4
S'LANDSCAPE AND URBAN PLANNING'
p1669
sg6
S'Lovejoy, Kristin'
p1670
sg8
I2010
sg9
S'Univ Calif Davis, Inst Transportat Studies, 1 Shields Ave, Davis, CA 95616 USA.'
p1671
sa(dp1672
g2
S'University of Missouri Columbia;University of Missouri System'
p1673
sg4
S'LANDSCAPE AND URBAN PLANNING'
p1674
sg6
S'He, Hong S.'
p1675
sg8
I2010
sg9
S'Univ Missouri, Sch Nat Resources, 203 Nat Resources Bldg, Columbia, MO 65211 USA.'
p1676
sa(dp1677
g2
S'University of California San Diego;University of California System'
p1678
sg4
S'SCIENCE'
p1679
sg6
S'Gneezy, Ayelet'
p1680
sg8
I2010
sg9
S'Univ Calif San Diego, Rady Sch Management, 9500 Gilman Dr, La Jolla, CA 92093 USA.'
p1681
sa(dp1682
g2
S'University of Wisconsin Madison;University of Wisconsin System'
p1683
sg4
S'PLOS ONE'
p1684
sg6
S'Durkin, Maureen S.'
p1685
sg8
I2010
sg9
S'Univ Wisconsin, Sch Med & Publ Hlth, Dept Populat Hlth Sci, Madison, WI 53706 USA.'
p1686
sa(dp1687
g2
S'University of Southern California'
p1688
sg4
S'AMERICAN JOURNAL OF ECONOMICS AND SOCIOLOGY'
p1689
sg6
S'Moss, Joshua Louis'
p1690
sg8
I2010
sg9
S'USC, Los Angeles, CA 90089 USA.'
p1691
sa(dp1692
g2
S'University of California Irvine;University of California System'
p1693
sg4
S'AMERICAN JOURNAL OF PUBLIC HEALTH'
p1694
sg6
S'Lakon, Cynthia M.'
p1695
sg8
I2010
sg9
S'Univ Calif Irvine, Dept Populat Hlth & Dis Prevent, Program Publ Hlth, 101 Theory Dr,Suite 250, Irvine, CA 92697 USA.'
p1696
sa(dp1697
g2
g17
sg4
S'ARCHAEOLOGY IN OCEANIA'
p1698
sg6
S'Kahn, Jennifer G.'
p1699
sg8
I2010
sg9
S'Bernice P Bishop Museum, 1525 Bernice St, Honolulu, HI 96817 USA.'
p1700
sa(dp1701
g2
S'University of Alaska Fairbanks;University of Alaska System'
p1702
sg4
S'CANADIAN JOURNAL OF FOREST RESEARCH-REVUE CANADIENNE DE RECHERCHE FORESTIERE'
p1703
sg6
S'Kofinas, Gary P.'
p1704
sg8
I2010
sg9
S'Univ Alaska Fairbanks, Sch Nat Resources & Agr Sci, Fairbanks, AK 99775 USA.'
p1705
sa(dp1706
g2
S'University of Iowa'
p1707
sg4
S'JOURNAL OF ATHLETIC TRAINING'
p1708
sg6
S'Yang, Jingzhen'
p1709
sg8
I2010
sg9
S'Univ Iowa, Dept Community & Behav Hlth, Coll Publ Hlth, 200 Hawkins Dr,E236 GH, Iowa City, IA 52242 USA.'
p1710
sa(dp1711
g2
S'Michigan State University'
p1712
sg4
S'JOURNAL OF ATHLETIC TRAINING'
p1713
sg6
S'Marra, Jeremy'
p1714
sg8
I2010
sg9
S'Michigan State Univ, 105 IM Sports Circle, E Lansing, MI 48824 USA.'
p1715
sa(dp1716
g2
S'Johns Hopkins University'
p1717
sg4
S'JOURNAL OF GENERAL INTERNAL MEDICINE'
p1718
sg6
S'Beach, Mary Catherine'
p1719
sg8
I2010
sg9
S'Johns Hopkins Univ, 2024 E Monument St,Room 2-511, Baltimore, MD 21287 USA.'
p1720
sa(dp1721
g2
S'University of California San Francisco;University of California System'
p1722
sg4
S'JOURNAL OF GENERAL INTERNAL MEDICINE'
p1723
sg6
S'Nguyen, Tung T.'
p1724
sg8
I2010
sg9
S'Univ Calif San Francisco, Med Ctr, Div Gen Internal Med, Dept Med, Box 0320, San Francisco, CA 94143 USA.'
p1725
sa(dp1726
g2
S'University of Chicago'
p1727
sg4
S'JOURNAL OF GENERAL INTERNAL MEDICINE'
p1728
sg6
S'Stulberg, Debra B.'
p1729
sg8
I2010
sg9
S'Univ Chicago, Dept Family Med, 5841 S Maryland Ave,MC 7110,Room M-156, Chicago, IL 60637 USA.'
p1730
sa(dp1731
g2
S'Stanford University'
p1732
sg4
S'JOURNAL OF NUTRITION'
p1733
sg6
S'Kronenberg, Fredi'
p1734
sg8
I2010
sg9
S'Stanford Univ, Clayman Inst Gender Res, Stanford, CA 94305 USA.'
p1735
sa(dp1736
g2
g17
sg4
S'JOURNAL OF STUDIES ON ALCOHOL AND DRUGS'
p1737
sg6
S'Moos, Rudolf H.'
p1738
sg8
I2010
sg9
S'Ctr Hlth Care Evaluat 152 MPD, 795 Willow Rd, Menlo Pk, CA 94025 USA.'
p1739
sa(dp1740
g2
S'University of Massachusetts Boston;University of Massachusetts System'
p1741
sg4
S'JOURNAL OF THE AMERICAN ACADEMY OF CHILD AND ADOLESCENT PSYCHIATRY'
p1742
sg6
S'Carter, Alice S.'
p1743
sg8
I2010
sg9
S'Univ Massachusetts, Dept Psychol, 100 Morrissey Blvd, Boston, MA 02125 USA.'
p1744
sa(dp1745
g2
S"Cincinnati Children's Hospital Medical Center"
p1746
sg4
S'JOURNAL OF TRAUMA-INJURY INFECTION AND CRITICAL CARE'
p1747
sg6
S'Rangel, Erika L.'
p1748
sg8
I2010
sg9
S'Cincinnati Childrens Hosp Med Ctr, Div Pediat & Thorac Surg, 3333 Burnet Ave, Cincinnati, OH 45229 USA.'
p1749
sa(dp1750
g2
S'Tulane University'
p1751
sg4
S'MEDIA CULTURE & SOCIETY'
p1752
sg6
S'Ostertag, Stephen'
p1753
sg8
I2010
sg9
S'Tulane Univ, Dept Sociol, 220 Newcomb Hall, New Orleans, LA 70118 USA.'
p1754
sa(dp1755
g2
g17
sg4
S'OBSTETRICS AND GYNECOLOGY'
p1756
sg6
S'Lawrence, Ryan E.'
p1757
sg8
I2010
sg9
S'924 E 57th St,Suite 104, Chicago, IL 60637 USA.'
p1758
sa(dp1759
g2
S'Brigham Young University'
p1760
sg4
S'PLOS MEDICINE'
p1761
sg6
S'Holt-Lunstad, Julianne'
p1762
sg8
I2010
sg9
S'Brigham Young Univ, Dept Psychol, Provo, UT 84602 USA.'
p1763
sa(dp1764
g2
S'Brown University'
p1765
sg4
S'PREVENTIVE MEDICINE'
p1766
sg6
S'Leahey, Tricia M.'
p1767
sg8
I2010
sg9
S'Brown Univ, Dept Psychiat & Human Behav, Warren Alpert Med Sch, Miriam Hosp,Weight Control & Diabet Res Ctr, Providence, RI 02912 USA.'
p1768
sa(dp1769
g2
S'University of Minnesota System;University of Minnesota Twin Cities'
p1770
sg4
S'PSYCHONEUROENDOCRINOLOGY'
p1771
sg6
S'Cutuli, J. J.'
p1772
sg8
I2010
sg9
S'Univ Minnesota, Inst Child Dev, 51 E River Pkwy, Minneapolis, MN 55455 USA.'
p1773
sa(dp1774
g2
S'University of Michigan;University of Michigan System'
p1775
sg4
S'PSYCHONEUROENDOCRINOLOGY'
p1776
sg6
S'Hajat, Anjum'
p1777
sg8
I2010
sg9
S'Univ Michigan, Sch Publ Hlth, Dept Epidemiol, Ctr Social Epidemiol & Populat Hlth, 109 Observ St,3rd Floor Tower,Room 3620W1, Ann Arbor, MI 48109 USA.'
p1778
sa(dp1779
g2
g17
sg4
S'SEMINARS IN REPRODUCTIVE MEDICINE'
p1780
sg6
S'Nakhuda, Gary S.'
p1781
sg8
I2010
sg9
S'Ctr Womens Reprod Care, Div Reprod Endocrinol & Infertil, 1790 Broadway, New York, NY 10019 USA.'
p1782
sa(dp1783
g2
S'University of Notre Dame'
p1784
sg4
S'SOCIAL FORCES'
p1785
sg6
S'Collett, Jessica L.'
p1786
sg8
I2010
sg9
S'Univ Notre Dame, Dept Sociol, 810 Flanner Hall, Notre Dame, IN 46556 USA.'
p1787
sa(dp1788
g2
S'University of Wisconsin Madison;University of Wisconsin System'
p1789
sg4
S'SOCIOLOGIA RURALIS'
p1790
sg6
S'Bell, Michael M.'
p1791
sg8
I2010
sg9
S'Univ Wisconsin, Dept Community & Environm Sociol, Madison, WI 53706 USA.'
p1792
sa(dp1793
g2
S'University of Chicago'
p1794
sg4
S'SOUTHERN MEDICAL JOURNAL'
p1795
sg6
S'Afzal, Khalid I.'
p1796
sg8
I2010
sg9
S'Univ Chicago, Dept Psychiat & Behav Neurosci, 5841 S Maryland Ave, Chicago, IL 60637 USA.'
p1797
sa(dp1798
g2
g17
sg4
S'TEACHING SOCIOLOGY'
p1799
sg6
S'Pearson, A. Fiona'
p1800
sg8
I2010
sg9
S'1615 Stanley St, New Britain, CT 06050 USA.'
p1801
sa(dp1802
g2
S'City University of New York (CUNY) System;Lehman College (CUNY)'
p1803
sg4
S'TEACHING SOCIOLOGY'
p1804
sg6
S'Wilder, Esther Isabelle'
p1805
sg8
I2010
sg9
S'CUNY Herbert H Lehman Coll, Dept Sociol, Bronx, NY 10468 USA.'
p1806
sa(dp1807
g2
S'Mississippi State University'
p1808
sg4
S'TEACHING SOCIOLOGY'
p1809
sg6
S'Burdette, Amy M.'
p1810
sg8
I2010
sg9
S'Mississippi State Univ, Dept Sociol, POB C, Mississippi State, MS 39762 USA.'
p1811
sa(dp1812
g2
S'University of Notre Dame'
p1813
sg4
S'TEACHING SOCIOLOGY'
p1814
sg6
S'Collett, Jessica L.'
p1815
sg8
I2010
sg9
S'Univ Notre Dame, Dept Sociol, Notre Dame, IN 46556 USA.'
p1816
sa(dp1817
g2
S'University of Michigan;University of Michigan System'
p1818
sg4
S'PLOS ONE'
p1819
sg6
S'Subramanyam, Malavika A.'
p1820
sg8
I2010
sg9
S'Univ Michigan, Sch Publ Hlth, Ctr Integrat Approaches Hlth Dispar, Ann Arbor, MI 48109 USA.'
p1821
sa(dp1822
g2
S'University of California San Diego;University of California System'
p1823
sg4
S'ANNALS OF BEHAVIORAL MEDICINE'
p1824
sg6
S'Cooper, Denise C.'
p1825
sg8
I2010
sg9
S'Univ Calif San Diego, Dept Psychiat, 9500 Gilman Dr,0804, La Jolla, CA 92093 USA.'
p1826
sa(dp1827
g2
S'University of Southern California'
p1828
sg4
S'BEHAVIORAL MEDICINE'
p1829
sg6
S'Leventhal, Adam M.'
p1830
sg8
I2010
sg9
S'Univ So Calif, Inst Hlth Promot & Dis Prevent Res, Dept Prevent Med, Keck Sch Med, 1000 S Fremont Ave,Unit 8, Alhambra, CA 91803 USA.'
p1831
sa(dp1832
g2
S'University of Massachusetts Amherst;University of Massachusetts System'
p1833
sg4
S'CITY & COMMUNITY'
p1834
sg6
S'Wynn, Jonathan R.'
p1835
sg8
I2010
sg9
S'Univ Massachusetts, 726 Thompson Hall, Amherst, MA 01003 USA.'
p1836
sa(dp1837
g2
g17
sg4
S'CITY & COMMUNITY'
p1838
sg6
S'Capek, Stella M.'
p1839
sg8
I2010
sg9
S'Hendrix Coll, Dept Sociol Anthropol, 1600 Washington Ave, Conway, AR 72032 USA.'
p1840
sa(dp1841
g2
S'Princeton University'
p1842
sg4
S'CURRENT ANTHROPOLOGY'
p1843
sg6
S'Biehl, Joao'
p1844
sg8
I2010
sg9
S'Princeton Univ, Ctr Hlth & Wellbeing, Woodrow Wilson Sch, 116 Aaron Burr Hall, Princeton, NJ 08544 USA.'
p1845
sa(dp1846
g2
S'University of Chicago'
p1847
sg4
S'CURRENT ANTHROPOLOGY'
p1848
sg6
S'Alizadeh, Abbas'
p1849
sg8
I2010
sg9
S'Univ Chicago, Iranian Prehistor Project, 1155 E 58th St, Chicago, IL 60637 USA.'
p1850
sa(dp1851
g2
S'University of Tennessee System'
p1852
sg4
S'CURRENT PSYCHOLOGY'
p1853
sg6
S'Ghorbani, Nima'
p1854
sg8
I2010
sg9
S'Univ Tennessee, Psychol Dept 2803, 350 Holt Hall,615 McCallie Ave, Chattanooga, TN 37403 USA.'
p1855
sa(dp1856
g2
S'RAND Corporation'
p1857
sg4
S'DRUG AND ALCOHOL DEPENDENCE'
p1858
sg6
S'Go, Myong-Hyun'
p1859
sg8
I2010
sg9
S'RAND Corp, Hlth, 1776 Main St,POB 2138, Santa Monica, CA 90407 USA.'
p1860
sa(dp1861
g2
S'Centers for Disease Control & Prevention - USA'
p1862
sg4
S'DRUG AND ALCOHOL DEPENDENCE'
p1863
sg6
S'van Gelder, Marleen M. H. J.'
p1864
sg8
I2010
sg9
S'Ctr Dis Control & Prevent, Natl Ctr Birth Defects & Dev Disabil, Mail Stop E-86,1600 Clifton Rd, Atlanta, GA 30333 USA.'
p1865
sa(dp1866
g2
S'University of Wisconsin Madison;University of Wisconsin System'
p1867
sg4
S'EMOTION'
p1868
sg6
S'Miyamoto, Yuri'
p1869
sg8
I2010
sg9
S'Univ Wisconsin, Dept Psychol, 1202 W Johnson St, Madison, WI 53706 USA.'
p1870
sa(dp1871
g2
S'University System of Maryland;University of Maryland College Park'
p1872
sg4
S'EXPERIMENTAL AND CLINICAL PSYCHOPHARMACOLOGY'
p1873
sg6
S'Kopetz, Catalina E.'
p1874
sg8
I2010
sg9
S'Univ Maryland, Dept Psychol, College Pk, MD 20742 USA.'
p1875
sa(dp1876
g2
S'University of North Carolina;University of North Carolina Chapel Hill'
p1877
sg4
S'HUMAN ECOLOGY'
p1878
sg6
S'West, Colin Thor'
p1879
sg8
I2010
sg9
S'Univ N Carolina, Dept Anthropol, Chapel Hill, NC 27515 USA.'
p1880
sa(dp1881
g2
S'North Carolina State University;University of North Carolina'
p1882
sg4
S'INTERNATIONAL JOURNAL OF COMPARATIVE SOCIOLOGY'
p1883
sg6
S'Dick, Christopher'
p1884
sg8
I2010
sg9
S'N Carolina State Univ, Dept Sociol & Anthropol, Campus Box 8107, Raleigh, NC 27695 USA.'
p1885
sa(dp1886
g2
S'University of Pennsylvania'
p1887
sg4
S'INTERNATIONAL JOURNAL OF EPIDEMIOLOGY'
p1888
sg6
S'Liu, Jianghong'
p1889
sg8
I2010
sg9
S'Univ Penn, Sch Nursing, Philadelphia, PA 19104 USA.'
p1890
sa(dp1891
g2
S'Johns Hopkins University'
p1892
sg4
S'JOURNAL OF AFFECTIVE DISORDERS'
p1893
sg6
S'Beydoun, May A.'
p1894
sg8
I2010
sg9
S'Johns Hopkins Bloomberg Sch Publ Hlth, Ctr Human Nutr, Dept Int Hlth, 615 N Wolfe St,E2546, Baltimore, MD 21205 USA.'
p1895
sa(dp1896
g2
S'University of California Irvine;University of California System'
p1897
sg4
S'JOURNAL OF EVOLUTIONARY BIOLOGY'
p1898
sg6
S'Frank, S. A.'
p1899
sg8
I2010
sg9
S'Univ Calif Irvine, Dept Ecol & Evolutionary Biol, Irvine, CA 92697 USA.'
p1900
sa(dp1901
g2
S'University of Illinois Chicago;University of Illinois Chicago Hospital;University of Illinois System'
p1902
sg4
S'JOURNAL OF NUTRITION'
p1903
sg6
S'Powell, Lisa M.'
p1904
sg8
I2010
sg9
S'Univ Illinois, Dept Econ, Chicago, IL 60608 USA.'
p1905
sa(dp1906
g2
S'Rush University'
p1907
sg4
S'JOURNAL OF RHEUMATOLOGY'
p1908
sg6
S'Jolly, Meenakshi'
p1909
sg8
I2010
sg9
S'Rush Univ, Med Ctr, Rush Lupus Clin, Rheumatol Sect, 1725 W Harrison St,Suite 1017, Chicago, IL 60612 USA.'
p1910
sa(dp1911
g2
S'University of California Los Angeles;University of California System'
p1912
sg4
S'PEDIATRICS'
p1913
sg6
S'Coker, Tumaini R.'
p1914
sg8
I2010
sg9
S'Univ Calif Los Angeles, David Geffen Sch Med, Rand Ctr Adolescent Hlth Promot, 1072 Gayley Ave, Los Angeles, CA 90024 USA.'
p1915
sa(dp1916
g2
S'Texas A&M University System'
p1917
sg4
S'PEDIATRICS INTERNATIONAL'
p1918
sg6
S'Bobbio, Tatiana G.'
p1919
sg8
I2010
sg9
S'TAMU 4243, College Stn, TX 77843 USA.'
p1920
sa(dp1921
g2
S'University of California San Diego;University of California System'
p1922
sg4
S'POETICS'
p1923
sg6
S'Cheyne, Andrew'
p1924
sg8
I2010
sg9
S'Univ Calif San Diego, Dept Sociol, 401 Social Sci Bldg,9500 Gilman Dr 0533, La Jolla, CA 92093 USA.'
p1925
sa(dp1926
g2
S'State University of New York (SUNY) Stony Brook;State University of New York (SUNY) System'
p1927
sg4
S'PROCEEDINGS OF THE NATIONAL ACADEMY OF SCIENCES OF THE UNITED STATES OF AMERICA'
p1928
sg6
S'Stone, Arthur A.'
p1929
sg8
I2010
sg9
S'SUNY Stony Brook, Dept Psychiat & Behav Sci, Stony Brook, NY 11794 USA.'
p1930
sa(dp1931
g2
S'New York University'
p1932
sg4
S'PSYCHIATRY-INTERPERSONAL AND BIOLOGICAL PROCESSES'
p1933
sg6
S'Galanter, Marc'
p1934
sg8
I2010
sg9
S'NYU, Sch Med, Div Alcoholism & Drug Abuse, 550 1st Ave, New York, NY 10016 USA.'
p1935
sa(dp1936
g2
g17
sg4
S'QUALITATIVE INQUIRY'
p1937
sg6
S'Vannini, Phillip'
p1938
sg8
I2010
sg9
S'Royal Roads Univ, Sch Commun & Culture, 2005 Sooke Rd, Victoria, BC V9B 5Y2, Canada.'
p1939
sa(dp1940
g2
S'University of Arizona'
p1941
sg4
S'RESEARCH IN SOCIAL STRATIFICATION AND MOBILITY'
p1942
sg6
S'Leahey, Erin'
p1943
sg8
I2010
sg9
S'Univ Arizona, Dept Sociol, 1245 S Campus Dr,POB 210027, Tucson, AZ 85721 USA.'
p1944
sa(dp1945
g2
S'University System Of New Hampshire;University of New Hampshire'
p1946
sg4
S'RURAL SOCIOLOGY'
p1947
sg6
S'Hamilton, Lawrence C.'
p1948
sg8
I2010
sg9
S'Univ New Hampshire, Dept Sociol, Durham, NH 03824 USA.'
p1949
sa(dp1950
g2
S'Wake Forest University'
p1951
sg4
S'SOCIAL FORCES'
p1952
sg6
S'Simon, Robin W.'
p1953
sg8
I2010
sg9
S'Wake Forest Univ, Dept Sociol, POB 7808, Winston Salem, NC 27106 USA.'
p1954
sa(dp1955
g2
S'Cornell University'
p1956
sg4
S'SOCIAL FORCES'
p1957
sg6
S'Peifer, Jared L.'
p1958
sg8
I2010
sg9
S'Cornell Univ, Dept Sociol, 323 Uris Hall, Ithaca, NY 14853 USA.'
p1959
sa(dp1960
g2
S'University of California Berkeley;University of California System'
p1961
sg4
S'SOCIAL FORCES'
p1962
sg6
S'Vaisey, Stephen'
p1963
sg8
I2010
sg9
S'Univ Calif Berkeley, Dept Sociol, 410 Barrows Hall 1980, Berkeley, CA 94720 USA.'
p1964
sa(dp1965
g2
S'University of North Dakota Grand Forks'
p1966
sg4
S'SOCIAL SCIENCE JOURNAL'
p1967
sg6
S'Pedersen, Daphne E.'
p1968
sg8
I2010
sg9
S'Univ N Dakota, Dept Sociol, Gillette Hall Room 202,225 Centennial Dr Stop 713, Grand Forks, ND 58202 USA.'
p1969
sa(dp1970
g2
S'California State University Los Angeles;California State University System'
p1971
sg4
S'SOCIOLOGICAL FORUM'
p1972
sg6
S'Campbell, Bradley'
p1973
sg8
I2010
sg9
S'Calif State Univ Los Angeles, Dept Sociol, 5151 State Univ Dr, Los Angeles, CA 90032 USA.'
p1974
sa(dp1975
g2
S'University of Massachusetts Boston;University of Massachusetts System'
p1976
sg4
S'SOCIOLOGICAL FORUM'
p1977
sg6
S'Hansen, Laura L.'
p1978
sg8
I2010
sg9
S'Univ Massachusetts, Boston, MA 02125 USA.'
p1979
sa(dp1980
g2
g17
sg4
S'SOCIOLOGICAL PERSPECTIVES'
p1981
sg6
S'Carpenter, Laura M.'
p1982
sg8
I2010
sg9
S'VU Stn B,Box 1811,2301 Vanderbilt Pl, Nashville, TN 37235 USA.'
p1983
sa(dp1984
g2
S'University of California San Diego;University of California System'
p1985
sg4
S'SOCIOLOGICAL THEORY'
p1986
sg6
S'Ng, Kwai Hang'
p1987
sg8
I2010
sg9
S'Univ Calif San Diego, Dept Sociol, 9500 Gilman Dr, La Jolla, CA 92093 USA.'
p1988
sa(dp1989
g2
S'University System Of New Hampshire;University of New Hampshire'
p1990
sg4
S'SOCIOLOGY OF RELIGION'
p1991
sg6
S'Dillon, Michele'
p1992
sg8
I2010
sg9
S'Univ New Hampshire, Dept Sociol, Durham, NH 03824 USA.'
p1993
sa(dp1994
g2
S'The Santa Fe Institute'
p1995
sg4
S'SCIENCE'
p1996
sg6
S'Eagle, Nathan'
p1997
sg8
I2010
sg9
S'Santa Fe Inst, 1399 Hyde Pk Rd, Santa Fe, NM 87501 USA.'
p1998
sa(dp1999
g2
S'UTMD Anderson Cancer Center'
p2000
sg4
S'JOURNAL OF THE NATIONAL CANCER INSTITUTE'
p2001
sg6
S'Wang, Xin Shelley'
p2002
sg8
I2010
sg9
S'Univ Texas MD Anderson Canc Ctr, Dept Symptom Res, 1515 Holcombe Blvd,Unit 1450, Houston, TX 77030 USA.'
p2003
sa(dp2004
g2
S'University of North Carolina;University of North Carolina Chapel Hill'
p2005
sg4
S'SCIENCE'
p2006
sg6
S'Mucha, Peter J.'
p2007
sg8
I2010
sg9
S'Univ N Carolina, Dept Math, Carolina Ctr Interdisciplinary Appl Math, Chapel Hill, NC 27599 USA.'
p2008
sa(dp2009
g2
S'University of California Santa Barbara;University of California System'
p2010
sg4
S'PROCEEDINGS OF THE NATIONAL ACADEMY OF SCIENCES OF THE UNITED STATES OF AMERICA'
p2011
sg6
S'Cosmides, Leda'
p2012
sg8
I2010
sg9
S'Univ Calif Santa Barbara, Ctr Evolutionary Psychol, Santa Barbara, CA 93106 USA.'
p2013
sa(dp2014
g2
S'DePaul University'
p2015
sg4
S'AGGRESSIVE BEHAVIOR'
p2016
sg6
S'Li, Yan'
p2017
sg8
I2010
sg9
S'Depaul Univ, Dept Psychol, 2219 N Kenmore Ave, Chicago, IL 60614 USA.'
p2018
sa(dp2019
g2
S'George Mason University'
p2020
sg4
S'AMERICAN JOURNAL OF HUMAN BIOLOGY'
p2021
sg6
S'Leslie, Timothy F.'
p2022
sg8
I2010
sg9
S'George Mason Univ, Dept Geog & Geoinformat Sci, 4400 Univ Dr MS 6C3, Fairfax, VA 22030 USA.'
p2023
sa(dp2024
g2
S'Johns Hopkins University'
p2025
sg4
S'AMERICAN JOURNAL OF HYPERTENSION'
p2026
sg6
S'Bell, Caryn N.'
p2027
sg8
I2010
sg9
S'Johns Hopkins Bloomberg Sch Publ Hlth, Hopkins Ctr Hlth Dispar Solut, Baltimore, MD USA.'
p2028
sa(dp2029
g2
S'Drexel University'
p2030
sg4
S'AMERICAN JOURNAL OF PREVENTIVE MEDICINE'
p2031
sg6
S'Koro, Marlen E.'
p2032
sg8
I2010
sg9
S'Drexel Univ, Dept Nutr Sci, 3141 Chestnut St, Philadelphia, PA 19104 USA.'
p2033
sa(dp2034
g2
S'Washington University (WUSTL)'
p2035
sg4
S'AMERICAN JOURNAL OF PREVENTIVE MEDICINE'
p2036
sg6
S'Pruitt, Sandi L.'
p2037
sg8
I2010
sg9
S'Washington Univ, Sch Med, Div Hlth Behav Res, 4444 Forest Pk Ave,Suite 6700,Campus Box 8504, St Louis, MO 63108 USA.'
p2038
sa(dp2039
g2
S'Columbia University'
p2040
sg4
S'AMERICAN JOURNAL OF SOCIOLOGY'
p2041
sg6
S'DiPrete, Thomas A.'
p2042
sg8
I2010
sg9
S'Columbia Univ, Dept Sociol, 606 W 122nd St, New York, NY 10027 USA.'
p2043
sa(dp2044
g2
S'Stanford University'
p2045
sg4
S'AMERICAN JOURNAL OF SOCIOLOGY'
p2046
sg6
S'Diehl, David'
p2047
sg8
I2010
sg9
S'Stanford Univ, Sch Educ, 485 Lausen Mall, Stanford, CA 94305 USA.'
p2048
sa(dp2049
g2
S'Vanderbilt University'
p2050
sg4
S'AMERICAN JOURNAL OF SOCIOLOGY'
p2051
sg6
S'McDonnell, Terence E.'
p2052
sg8
I2010
sg9
S'Vanderbilt Univ, Dept Sociol, VU Stn B351811, Nashville, TN 37235 USA.'
p2053
sa(dp2054
g2
S'Massachusetts Institute of Technology (MIT)'
p2055
sg4
S'AMERICAN SCIENTIST'
p2056
sg6
S'Pentland, Alex (Sandy'
p2057
sg8
I2010
sg9
S'MIT, Media Lab, Room E15-387,20 Ames St, Cambridge, MA 02139 USA.'
p2058
sa(dp2059
g2
S'Penn State University;Pennsylvania Commonwealth System of Higher Education (PCSHE)'
p2060
sg4
S'ANNALS OF BEHAVIORAL MEDICINE'
p2061
sg6
S'Matthews, Stephen A.'
p2062
sg8
I2010
sg9
S'Penn State Univ, Populat Res Inst, University Pk, PA 16802 USA.'
p2063
sa(dp2064
g2
S'Harvard University'
p2065
sg4
S'ARCHIVES OF PEDIATRICS & ADOLESCENT MEDICINE'
p2066
sg6
S'Singh, Tajinder P.'
p2067
sg8
I2010
sg9
S'Childrens Hosp, Dept Cardiol, 300 Longwood Ave, Boston, MA 02115 USA.'
p2068
sa(dp2069
g2
S'Harvard University'
p2070
sg4
S'COGNITION'
p2071
sg6
S'Abarbanell, Linda'
p2072
sg8
I2010
sg9
S'Harvard Univ, Grad Sch Educ, Cambridge, MA 02138 USA.'
p2073
sa(dp2074
g2
g17
sg4
S'COGNITION'
p2075
sg6
S'Lam, Barry'
p2076
sg8
I2010
sg9
S'Vassar Coll, Dept Philosophy, Box 55,124 Raymond Ave, Poughkeepsie, NY 12604 USA.'
p2077
sa(dp2078
g2
S'University of Arizona'
p2079
sg4
S'COMPLEXITY'
p2080
sg6
S'Szilagyi, Miklos N.'
p2081
sg8
I2010
sg9
S'Univ Arizona, Dept Elect & Comp Engn, Tucson, AZ 85721 USA.'
p2082
sa(dp2083
g2
g17
sg4
S'HUMAN STUDIES'
p2084
sg6
S'Hilbert, Richard A.'
p2085
sg8
I2010
sg9
S'Gustavus Adolphus Coll, Dept Sociol Anthropol, St Peter, MN 56082 USA.'
p2086
sa(dp2087
g2
S'University of Illinois Chicago;University of Illinois Chicago Hospital;University of Illinois System'
p2088
sg4
S'INTERNATIONAL JOURNAL OF BEHAVIORAL DEVELOPMENT'
p2089
sg6
S'Birman, Dina'
p2090
sg8
I2010
sg9
S'Univ Illinois, Dept Psychol, 1007 W Harrison St MC 285, Chicago, IL 60607 USA.'
p2091
sa(dp2092
g2
g17
sg4
S'JOURNAL OF BIOSOCIAL SCIENCE'
p2093
sg6
S'Grady, William R.'
p2094
sg8
I2010
sg9
S'Battelle Ctr Publ Hlth Res & Evaluat, Seattle, WA USA.'
p2095
sa(dp2096
g2
S'Johns Hopkins University'
p2097
sg4
S'JOURNAL OF EPIDEMIOLOGY AND COMMUNITY HEALTH'
p2098
sg6
S'Bleich, Sara N.'
p2099
sg8
I2010
sg9
S'Johns Hopkins Univ, Bloomberg Sch Publ Hlth, Dept Hlth Policy & Management, 624 N Broadway,Room 451, Baltimore, MD 21205 USA.'
p2100
sa(dp2101
g2
S'Georgia State University;University System of Georgia'
p2102
sg4
S'JOURNAL OF EXPERIMENTAL CHILD PSYCHOLOGY'
p2103
sg6
S'Hopper, Lydia M.'
p2104
sg8
I2010
sg9
S'Georgia State Univ, Dept Psychol, Language Res Ctr, Univ Plaza, Atlanta, GA 30303 USA.'
p2105
sa(dp2106
g2
S'University of Minnesota System;University of Minnesota Twin Cities'
p2107
sg4
S'LIVESTOCK SCIENCE'
p2108
sg6
S'Kuzma, Jennifer'
p2109
sg8
I2010
sg9
S'Univ Minnesota, Hubert H Humphrey Inst Publ Affairs, 225 Humphrey Ctr,301 19th Ave S, Minneapolis, MN 55455 USA.'
p2110
sa(dp2111
g2
S'University of Texas at San Antonio (UTSA)'
p2112
sg4
S'PREVENTIVE MEDICINE'
p2113
sg6
S'Yan, Alice Fang'
p2114
sg8
I2010
sg9
S'Univ Texas San Antonio, Dept Hlth & Kinesiol, 6900 N Loop,1604 West, San Antonio, TX 78250 USA.'
p2115
sa(dp2116
g2
g17
sg4
S'SOCIAL SCIENCE RESEARCH'
p2117
sg6
S'Gasper, Joseph'
p2118
sg8
I2010
sg9
S'1600 Res Blvd, Rockville, MD 20850 USA.'
p2119
sa(dp2120
g2
S'George Mason University'
p2121
sg4
S'SOCIETY'
p2122
sg6
S'Boettke, Peter J.'
p2123
sg8
I2010
sg9
S'George Mason Univ, James M Buchanan Ctr Polit Econ, 4400 Univ Dr, Fairfax, VA 22030 USA.'
p2124
sa(dp2125
g2
S'University of Delaware'
p2126
sg4
S'SOCIETY'
p2127
sg6
S'Pitt, Brian A.'
p2128
sg8
I2010
sg9
S'Univ Delaware, Dept Sociol & Criminal Justice, Newark, DE 19716 USA.'
p2129
sa(dp2130
g2
S'George Mason University'
p2131
sg4
S'SOCIETY'
p2132
sg6
S'Storr, Virgil Henry'
p2133
sg8
I2010
sg9
S'George Mason Univ, Mercatus Ctr, Grad Student Programs, 3301 N Fairfax Dr,Suite 450, Arlington, VA 22203 USA.'
p2134
sa(dp2135
g2
S'Ohio State University'
p2136
sg4
S'LANDSCAPE AND URBAN PLANNING'
p2137
sg6
S'Nasar, Jack L.'
p2138
sg8
I2010
sg9
S'Ohio State Univ, 231 Knowlton Hall,275 W Woodruff Ave, Columbus, OH 43210 USA.'
p2139
sa(dp2140
g2
S'University of Michigan;University of Michigan System'
p2141
sg4
S'PROCEEDINGS OF THE NATIONAL ACADEMY OF SCIENCES OF THE UNITED STATES OF AMERICA'
p2142
sg6
S'Grossmann, Igor'
p2143
sg8
I2010
sg9
S'Univ Michigan, Dept Psychol, 580 Union Dr, Ann Arbor, MI 48109 USA.'
p2144
sa(dp2145
g2
S'Harvard University'
p2146
sg4
S'ANNALS OF INTERNAL MEDICINE'
p2147
sg6
S'Rosenquist, J. Niels'
p2148
sg8
I2010
sg9
S'Harvard Univ, Sch Med, 180-A Longwood Ave, Boston, MA 02115 USA.'
p2149
sa(dp2150
g2
S'University of Michigan;University of Michigan System'
p2151
sg4
S'PROCEEDINGS OF THE NATIONAL ACADEMY OF SCIENCES OF THE UNITED STATES OF AMERICA'
p2152
sg6
S'Na, Jinkyung'
p2153
sg8
I2010
sg9
S'Univ Michigan, Dept Psychol, 580 Union Dr, Ann Arbor, MI 48109 USA.'
p2154
sa(dp2155
g2
S'Arizona State University'
p2156
sg4
S'AMERICAN JOURNAL OF PUBLIC HEALTH'
p2157
sg6
S'Castro, Felipe Gonzalez'
p2158
sg8
I2010
sg9
S'Arizona State Univ, Dept Psychol, Tempe, AZ 85287 USA.'
p2159
sa(dp2160
g2
S'Washington State University'
p2161
sg4
S'AMERICAN SOCIOLOGICAL REVIEW'
p2162
sg6
S'Hooks, Gregory'
p2163
sg8
I2010
sg9
S'Washington State Univ, Dept Sociol, Pullman, WA 99164 USA.'
p2164
sa(dp2165
g2
S'Rutgers State University'
p2166
sg4
S'APPETITE'
p2167
sg6
S'Schefske, Scott D.'
p2168
sg8
I2010
sg9
S'Rutgers State Univ, Food Policy Inst, ASBIII 3 Rutgers Plaza, New Brunswick, NJ 08901 USA.'
p2169
sa(dp2170
g2
S'University of Maine System;University of Southern Maine'
p2171
sg4
S'CRIME MEDIA CULTURE'
p2172
sg6
S'Beirne, Piers'
p2173
sg8
I2010
sg9
S'Univ So Maine, Dept Criminol, Portland, ME 04103 USA.'
p2174
sa(dp2175
g2
S'University of California Los Angeles;University of California System'
p2176
sg4
S'CURRENT ANTHROPOLOGY'
p2177
sg6
S'Scelza, Brooke A.'
p2178
sg8
I2010
sg9
S'Univ Calif Los Angeles, Dept Anthropol, Los Angeles, CA 90095 USA.'
p2179
sa(dp2180
g2
S'Central Washington University'
p2181
sg4
S'CURRENT ZOOLOGY'
p2182
sg6
S'Sun, Lixing'
p2183
sg8
I2010
sg9
S'Cent Washington Univ, Dept Biol Sci, Ellensburg, WA 98926 USA.'
p2184
sa(dp2185
g2
S'Yale University'
p2186
sg4
S'EUROPEAN SOCIOLOGICAL REVIEW'
p2187
sg6
S'Breen, Richard'
p2188
sg8
I2010
sg9
S'Yale Univ, Dept Sociol, Res Ctr, Inequal & Life Course, New Haven, CT 06520 USA.'
p2189
sa(dp2190
g2
S'University of Vermont'
p2191
sg4
S'EXPERIMENTAL AND CLINICAL PSYCHOPHARMACOLOGY'
p2192
sg6
S'Zvolensky, Michael J.'
p2193
sg8
I2010
sg9
S'Univ Vermont, Dept Psychol, 2 Colchester Ave,John Dewey Hall, Burlington, VT 05405 USA.'
p2194
sa(dp2195
g2
S'State University of New York (SUNY) Albany;State University of New York (SUNY) System'
p2196
sg4
S'EXPERIMENTAL AND CLINICAL PSYCHOPHARMACOLOGY'
p2197
sg6
S'Freeman, Nicholas'
p2198
sg8
I2010
sg9
S'SUNY Albany, Dept Psychol, 1400 Washington Ave, Albany, NY 12222 USA.'
p2199
sa(dp2200
g2
S'Northeastern University'
p2201
sg4
S'HEALTH SOCIOLOGY REVIEW'
p2202
sg6
S'Dominguez, Silvia'
p2203
sg8
I2010
sg9
S'Northeastern Univ, Dept Sociol & Anthropol, Boston, MA 02115 USA.'
p2204
sa(dp2205
g2
g17
sg4
S'JOURNAL OF MIXED METHODS RESEARCH'
p2206
sg6
S'Alise, Mark A.'
p2207
sg8
I2010
sg9
S'6400 Perkins Rd, Baton Rouge, LA 70808 USA.'
p2208
sa(dp2209
g2
S'Rutgers State University'
p2210
sg4
S'POETICS'
p2211
sg6
S'Cerulo, Karen A.'
p2212
sg8
I2010
sg9
S'Rutgers State Univ, Dept Sociol, 54 Joyce Kilmer Ave, Piscataway, NJ 08854 USA.'
p2213
sa(dp2214
g2
S'Princeton University'
p2215
sg4
S'POETICS'
p2216
sg6
S'Shepherd, Hana'
p2217
sg8
I2010
sg9
S'Princeton Univ, Dept Sociol, Wallace Hall, Princeton, NJ 08544 USA.'
p2218
sa(dp2219
g2
S'University of Medicine & Dentistry New Jersey'
p2220
sg4
S'POETICS'
p2221
sg6
S'Danna-Lynch, Karen'
p2222
sg8
I2010
sg9
S'UMDNJ Robert Wood Johnson Med Sch, C-O 878 Lawrenceville Rd, Princeton, NJ 08540 USA.'
p2223
sa(dp2224
g2
S'University of Notre Dame'
p2225
sg4
S'POETICS'
p2226
sg6
S'Lizardo, Omar'
p2227
sg8
I2010
sg9
S'Univ Notre Dame, Dept Sociol, 810 Flanner Hall, Notre Dame, IN 46556 USA.'
p2228
sa(dp2229
g2
S'University of Chicago'
p2230
sg4
S'POETICS'
p2231
sg6
S'Martin, John Levi'
p2232
sg8
I2010
sg9
S'Univ Chicago, Dept Sociol, 1126 E 59th St, Chicago, IL 60637 USA.'
p2233
sa(dp2234
g2
S'Harvard University'
p2235
sg4
S'SEMINARS IN ARTHRITIS AND RHEUMATISM'
p2236
sg6
S'Hu, Stephanie W.'
p2237
sg8
I2010
sg9
S'Harvard Univ, Brigham & Womens Hosp, Dept Dermatol, Ctr Skin & Related Musculoskeletal Dis,Med Sch, 45 Francis St,221L, Boston, MA 02115 USA.'
p2238
sa(dp2239
g2
S'Indiana University System;Indiana University-Purdue University Indianapolis'
p2240
sg4
S'TEACHING SOCIOLOGY'
p2241
sg6
S'Howard, Jay R.'
p2242
sg8
I2010
sg9
S'Indiana Univ Purdue Univ, Div Liberal Arts, 4601 Cent Ave, Columbus, IN 47203 USA.'
p2243
sa(dp2244
g2
S'Brandeis University'
p2245
sg4
S'TEACHING SOCIOLOGY'
p2246
sg6
S'Shostak, Sara'
p2247
sg8
I2010
sg9
S'Brandeis Univ, Dept Sociol, MS 071, Waltham, MA 02454 USA.'
p2248
sa(dp2249
g2
S'University of Maine;University of Maine Orono;University of Maine System'
p2250
sg4
S'TEACHING SOCIOLOGY'
p2251
sg6
S'Huisman, Kimberly'
p2252
sg8
I2010
sg9
S'Univ Maine, Dept Sociol, 5728 Fernald Hall, Orono, ME 04669 USA.'
p2253
sa(dp2254
g2
S'Louisiana State University;Louisiana State University System'
p2255
sg4
S'TEACHING SOCIOLOGY'
p2256
sg6
S'Berkowitz, Dana'
p2257
sg8
I2010
sg9
S'Louisiana State Univ, Dept Sociol, Program Womens & Gender Studies, 133 Stubbs Hall, Baton Rouge, LA 70803 USA.'
p2258
sa(dp2259
g2
S'Northern Illinois University'
p2260
sg4
S'TEACHING SOCIOLOGY'
p2261
sg6
S'Moremen, Robin D.'
p2262
sg8
I2010
sg9
S'No Illinois Univ, Dept Sociol, De Kalb, IL 60115 USA.'
p2263
sa(dp2264
g2
S'University of Wisconsin Madison;University of Wisconsin System'
p2265
sg4
S'TEACHING SOCIOLOGY'
p2266
sg6
S'Healey-Etten, Victoria'
p2267
sg8
I2010
sg9
S'Univ Wisconsin, Dept Sociol, 1180 Observ Dr, Madison, WI 53706 USA.'
p2268
sa(dp2269
g2
S'University of Chicago'
p2270
sg4
S'TRENDS IN BIOTECHNOLOGY'
p2271
sg6
S'Yao, Lixia'
p2272
sg8
I2010
sg9
S'Univ Chicago, Dept Sociol, Chicago, IL 60637 USA.'
p2273
sa(dp2274
g2
S'University of California San Diego;University of California System'
p2275
sg4
S'PROCEEDINGS OF THE NATIONAL ACADEMY OF SCIENCES OF THE UNITED STATES OF AMERICA'
p2276
sg6
S'Fowler, James H.'
p2277
sg8
I2010
sg9
S'Univ Calif San Diego, Dept Polit Sci, La Jolla, CA 92103 USA.'
p2278
sa(dp2279
g2
S'University of California San Diego;University of California System'
p2280
sg4
S'PLOS ONE'
p2281
sg6
S'Mednick, Sara C.'
p2282
sg8
I2010
sg9
S'Univ Calif San Diego, Dept Psychiat, La Jolla, CA 92093 USA.'
p2283
sa(dp2284
g2
S'Wayne State University'
p2285
sg4
S'ALCOHOL AND ALCOHOLISM'
p2286
sg6
S'Li, Qing'
p2287
sg8
I2010
sg9
S'Wayne State Univ, Sch Med, Prevent Res Ctr, Carman & Ann Adams Dept Pediat, Hutzel Bldg,4707 St Antoine,5th Floor Suite W534, Detroit, MI 48201 USA.'
p2288
sa(dp2289
g2
S'Boston University'
p2290
sg4
S'AMERICAN JOURNAL OF EPIDEMIOLOGY'
p2291
sg6
S'Krishnan, Supriya'
p2292
sg8
I2010
sg9
S'Boston Univ, Slone Epidemiol Ctr, 1010 Commonwealth Ave,4th Floor, Boston, MA 02215 USA.'
p2293
sa(dp2294
g2
g17
sg4
S'AMERICAN JOURNAL OF SOCIOLOGY'
p2295
sg6
S'Wagner-Pacifici, Robin'
p2296
sg8
I2010
sg9
S'Swarthmore Coll, Dept Sociol & Anthropol, Swarthmore, PA 19081 USA.'
p2297
sa(dp2298
g2
S'Montana State University;Montana State University Bozeman;Montana State University System'
p2299
sg4
S'BIOLOGY & PHILOSOPHY'
p2300
sg6
S'Intemann, Kristen'
p2301
sg8
I2010
sg9
S'Montana State Univ, Bozeman, MT 59717 USA.'
p2302
sa(dp2303
g2
S'City of Hope'
p2304
sg4
S'CANCER'
p2305
sg6
S'Artinyan, Avo'
p2306
sg8
I2010
sg9
S'City Hope Natl Med Ctr, Div Surg Oncol, 1500 E Duarte Rd, Duarte, CA 91010 USA.'
p2307
sa(dp2308
g2
g17
sg4
S'CURRENT PSYCHOLOGY'
p2309
sg6
S'Brady, Loretta L. C.'
p2310
sg8
I2010
sg9
S'St Anselm Coll, 100 St Anselms Dr Box 1653, Manchester, NH 03102 USA.'
p2311
sa(dp2312
g2
S'University of Oklahoma - Norman;University of Oklahoma System'
p2313
sg4
S'CURRENT SOCIOLOGY'
p2314
sg6
S'Bass, Loretta E.'
p2315
sg8
I2010
sg9
S'Univ Oklahoma, Dept Sociol, 780 Van Vleet Oval,331 KH, Norman, OK 73019 USA.'
p2316
sa(dp2317
g2
S'University of California Los Angeles;University of California System'
p2318
sg4
S'ETHNOGRAPHY'
p2319
sg6
S'Katz, Jack'
p2320
sg8
I2010
sg9
S'Univ Calif Los Angeles, 264 Haines Hall, Los Angeles, CA 90095 USA.'
p2321
sa(dp2322
g2
S'University of California Los Angeles;University of California System'
p2323
sg4
S'ETHNOGRAPHY'
p2324
sg6
S'Tavory, Iddo'
p2325
sg8
I2010
sg9
S'Univ Calif Los Angeles, 264 Haines Hall, Los Angeles, CA 90095 USA.'
p2326
sa(dp2327
g2
S'Mayo Clinic'
p2328
sg4
S'EUROPEAN HEART JOURNAL'
p2329
sg6
S'Gersh, Bernard J.'
p2330
sg8
I2010
sg9
S'Mayo Clin, Dept Internal Med, Div Cardiovasc Dis, Rochester, MN 55905 USA.'
p2331
sa(dp2332
g2
g17
sg4
S'FOOD AND NUTRITION BULLETIN'
p2333
sg6
S'Adams, Richard N.'
p2334
sg8
I2010
sg9
S'1801 Lavaca 6A, Austin, TX 78701 USA.'
p2335
sa(dp2336
g2
S'Duke University'
p2337
sg4
S'HYPERTENSION'
p2338
sg6
S'Williams, Redford B.'
p2339
sg8
I2010
sg9
S'Duke Univ, Med Ctr, Behav Med Res Ctr, Dept Psychiat, Box 3926 2212 Elder St, Durham, NC 27710 USA.'
p2340
sa(dp2341
g2
S'Baylor University'
p2342
sg4
S'JOURNAL FOR THE SCIENTIFIC STUDY OF RELIGION'
p2343
sg6
S'Liu, Eric Y.'
p2344
sg8
I2010
sg9
S'Baylor Univ, Inst Studies Relig, Waco, TX 76798 USA.'
p2345
sa.