(lp0
(dp1
S'organization'
p2
S'University of California San Francisco;University of California System'
p3
sS'journal'
p4
S'JOURNAL OF NEUROSURGERY'
p5
sS'author'
p6
S'Jahangiri, Arman'
p7
sS'year'
p8
I2013
sS'address'
p9
S'Univ Calif San Francisco, Dept Neurol Surg, 505 Parnassus Ave,Rm M779, San Francisco, CA 94143 USA.'
p10
sa(dp11
g2
S'Medical University of South Carolina'
p12
sg4
S'THERAPEUTIC DRUG MONITORING'
p13
sg6
S'Taber, David J.'
p14
sg8
I2013
sg9
S'Med Univ S Carolina, Div Transplant Surg, 96 Jonathan Lucas St, Charleston, SC 29425 USA.'
p15
sa(dp16
g2
S'Georgia State University;University System of Georgia'
p17
sg4
S'ADDICTIVE BEHAVIORS'
p18
sg6
S'Latzman, Robert D.'
p19
sg8
I2013
sg9
S'Georgia State Univ, Dept Psychol, POB 5010, Atlanta, GA 30302 USA.'
p20
sa(dp21
g2
S'Arizona State University'
p22
sg4
S'ANNALS OF BEHAVIORAL MEDICINE'
p23
sg6
S'Davis, Mary C.'
p24
sg8
I2013
sg9
S'Arizona State Univ, Dept Psychol, POB 1104, Tempe, AZ 85287 USA.'
p25
sa(dp26
g2
S'Harvard University;Massachusetts General Hospital;VA Boston Healthcare System'
p27
sg4
S'ANNALS OF BEHAVIORAL MEDICINE'
p28
sg6
S'Tsai, Alexander C.'
p29
sg8
I2013
sg9
S'Massachusetts Gen Hosp, Ctr Global Hlth, Room 1529-E3,100 Cambridge St,15th Floor, Boston, MA 02114 USA.'
p30
sa(dp31
g2
S'University of California Los Angeles;University of California System'
p32
sg4
S'JOURNAL OF EPIDEMIOLOGY AND COMMUNITY HEALTH'
p33
sg6
S'DerSarkissian, Maral'
p34
sg8
I2013
sg9
S'Univ Calif Los Angeles, Fielding Sch Publ Hlth, Dept Epidemiol, 5416 La Crescenta Ave, Los Angeles, CA 91214 USA.'
p35
sa(dp36
g2
S''
p37
sg4
S'CULTURAL SOCIOLOGY'
p38
sg6
S'Elafros, Athena'
p39
sg8
I2013
sg9
S'Keuka Coll, Div Basic & Appl Social Sci, 141 Cent Ave, Keuka Pk, NY 14478 USA.'
p40
sa(dp41
g2
S'New York University'
p42
sg4
S'QUALITATIVE SOCIOLOGY'
p43
sg6
S'Baiocchi, Gianpaolo'
p44
sg8
I2013
sg9
S'NYU, Gallatin Sch, 411 Lafayette 3rd Floor, New York, NY 10012 USA.'
p45
sa(dp46
g2
S'University of Notre Dame'
p47
sg4
S'QUALITATIVE SOCIOLOGY'
p48
sg6
S'Griswold, Wendy'
p49
sg8
I2013
sg9
S'Univ Notre Dame, Dept Sociol, 810 Flanner Hall, Notre Dame, IN 46556 USA.'
p50
sa(dp51
g2
S'Sam Houston State University;Texas State University System'
p52
sg4
S'RURAL SOCIOLOGY'
p53
sg6
S'Ellis, Colter'
p54
sg8
I2013
sg9
S'Sam Houston State Univ, Dept Sociol, Huntsville, TX 77341 USA.'
p55
sa(dp56
g2
S'Rutgers State University;Rutgers State University Medical Center;University of Medicine & Dentistry New Jersey'
p57
sg4
S'CANCER CAUSES & CONTROL'
p58
sg6
S'Chandran, Urmila'
p59
sg8
I2013
sg9
S'Univ Med & Dent New Jersey, Robert Wood Johnson Med Sch, Rutgers Canc Inst New Jersey, 195 Little Albany St,Room 5549-10, New Brunswick, NJ 08903 USA.'
p60
sa(dp61
g2
S'Arizona State University'
p62
sg4
S'DEVELOPMENTAL PSYCHOBIOLOGY'
p63
sg6
S'Taylor, Zoe E.'
p64
sg8
I2013
sg9
S'Arizona State Univ, Dept Psychol, Tempe, AZ 85287 USA.'
p65
sa(dp66
g2
S'University of Chicago'
p67
sg4
S'SOCIETY'
p68
sg6
S'Kadakal, Reha'
p69
sg8
I2013
sg9
S'Univ Chicago, Social Sci Collegiate Div, 5845 S Ellis Ave, Chicago, IL 60637 USA.'
p70
sa(dp71
g2
S'University of Notre Dame'
p72
sg4
S'SOCIETY'
p73
sg6
S'Smith, Christian'
p74
sg8
I2013
sg9
S'Univ Notre Dame, Dept Sociol, Flanner Hall, Notre Dame, IN 46556 USA.'
p75
sa(dp76
g2
S'Florida State University System;University of South Florida'
p77
sg4
S'SOCIETY'
p78
sg6
S'Turner, Stephen'
p79
sg8
I2013
sg9
S'Univ S Florida, Dept Philosophy, FAO 226, Tampa, FL 33620 USA.'
p80
sa(dp81
g2
S'University of Kentucky'
p82
sg4
S'AGE'
p83
sg6
S'Johnson, Nathan F.'
p84
sg8
I2013
sg9
S'Univ Kentucky, Sch Med, Dept Anat & Neurobiol, Lexington, KY 40536 USA.'
p85
sa(dp86
g2
S'Texas State University San Marcos;Texas State University System'
p87
sg4
S'DEVIANT BEHAVIOR'
p88
sg6
S'Chamlin, Mitchell B.'
p89
sg8
I2013
sg9
S'Texas State Univ, Sch Criminal Justice, 601 Univ Dr, San Marcos, TX 78666 USA.'
p90
sa(dp91
g2
g37
sg4
S'ETHNICITY & DISEASE'
p92
sg6
S'Thorpe, Roland J., Jr.'
p93
sg8
I2013
sg9
S'624 N Broadway,Ste 441, Baltimore, MD 21205 USA.'
p94
sa(dp95
g2
S'Howard University'
p96
sg4
S'ETHNICITY & DISEASE'
p97
sg6
S'Frierson, Georita M.'
p98
sg8
I2013
sg9
S'Howard Univ, Dept Psychol, CB Powell Bldg, Washington, DC 20059 USA.'
p99
sa(dp100
g2
g37
sg4
S'CRITICAL INQUIRY'
p101
sg6
S'Celenza, Christopher S.'
p102
sg8
I2013
sg9
S'Amer Acad, Rome, Italy.'
p103
sa(dp104
g2
S'Colorado State University'
p105
sg4
S'JOURNAL OF ENVIRONMENTAL MANAGEMENT'
p106
sg6
S'Sternlieb, Faith'
p107
sg8
I2013
sg9
S'Colorado State Univ, Dept Geosci, Ft Collins, CO 80523 USA.'
p108
sa(dp109
g2
g37
sg4
S'PSYCHIATRY RESEARCH'
p110
sg6
S'DeVylder, J. E.'
p111
sg8
I2013
sg9
S'1255 Amsterdam Ave,9th Floor, New York, NY 10027 USA.'
p112
sa(dp113
g2
S'Harvard University'
p114
sg4
S'PSYCHIATRY RESEARCH'
p115
sg6
S'Rosmarin, David H.'
p116
sg8
I2013
sg9
S'Harvard Univ, Sch Med, McLean Hosp, Dept Psychiat, 115 Mill St, Belmont, MA 02478 USA.'
p117
sa(dp118
g2
S'University of Tennessee Knoxville;University of Tennessee System'
p119
sg4
S'PSYCHIATRY RESEARCH'
p120
sg6
S'Lee, Sungkyu'
p121
sg8
I2013
sg9
S'Univ Tennessee, Coll Social Work, 301 Henson Hall,1618 Cumberland Ave, Knoxville, TN 37996 USA.'
p122
sa(dp123
g2
S'Duke University'
p124
sg4
S'PLOS ONE'
p125
sg6
S'Siegel, David A.'
p126
sg8
I2013
sg9
S'Duke Univ, Dept Polit Sci, Durham, NC 27710 USA.'
p127
sa(dp128
g2
S'University of California Berkeley;University of California System'
p129
sg4
S'SCIENTIFIC REPORTS'
p130
sg6
S'Dar, Manzoor H.'
p131
sg8
I2013
sg9
S'Univ Calif Berkeley, Berkeley, CA 94720 USA.'
p132
sa(dp133
g2
S'Centers for Disease Control & Prevention - USA'
p134
sg4
S'MMWR-MORBIDITY AND MORTALITY WEEKLY REPORT'
p135
sg6
S'Beckles, Gloria L.'
p136
sg8
I2013
sg9
S'CDC, Div Diabet Translat, Natl Ctr Chron Dis Prevent & Hlth Promot, Atlanta, GA 30333 USA.'
p137
sa(dp138
g2
S'Centers for Disease Control & Prevention - USA'
p139
sg4
S'MMWR-MORBIDITY AND MORTALITY WEEKLY REPORT'
p140
sg6
S'Athar, Heba M.'
p141
sg8
I2013
sg9
S'CDC, Div Epidemiol Anal & Lib Serv, Ctr Surveillance Epidemiol & Lab Serv, Atlanta, GA 30333 USA.'
p142
sa(dp143
g2
S'Centers for Disease Control & Prevention - USA'
p144
sg4
S'MMWR-MORBIDITY AND MORTALITY WEEKLY REPORT'
p145
sg6
S'Moonesinghe, Ramal'
p146
sg8
I2013
sg9
S'CDC, Off Minor Hlth & Hlth Equ, Off Director, Atlanta, GA 30333 USA.'
p147
sa(dp148
g2
S'University of Virginia'
p149
sg4
S'PLOS ONE'
p150
sg6
S'Johnson, Susan M.'
p151
sg8
I2013
sg9
S'Univ Virginia, Dept Psychol, Gilmer Hall, Charlottesville, VA 22903 USA.'
p152
sa(dp153
g2
S'University of Virginia'
p154
sg4
S'FRONTIERS IN HUMAN NEUROSCIENCE'
p155
sg6
S'Gross, Elizabeth B.'
p156
sg8
I2013
sg9
S'Univ Virginia, Dept Psychol, POB 400400, Charlottesville, VA 22904 USA.'
p157
sa(dp158
g2
S'University of California San Diego;University of California System'
p159
sg4
S'PROCEEDINGS OF THE NATIONAL ACADEMY OF SCIENCES OF THE UNITED STATES OF AMERICA'
p160
sg6
S'Lewis, Kevin'
p161
sg8
I2013
sg9
S'Univ Calif San Diego, Dept Sociol, La Jolla, CA 92093 USA.'
p162
sa(dp163
g2
S'University of Michigan;University of Michigan System'
p164
sg4
S'AMERICAN JOURNAL OF EPIDEMIOLOGY'
p165
sg6
S'Hicken, Margaret T.'
p166
sg8
I2013
sg9
S'Univ Michigan, Sch Publ Hlth, Dept Epidemiol, 3634 SPH Tower,1416Washington Hts, Ann Arbor, MI 48109 USA.'
p167
sa(dp168
g2
S'Oregon University System;Portland State University'
p169
sg4
S'JOURNAL OF ENVIRONMENTAL MANAGEMENT'
p170
sg6
S'Priebe, M. E. Paulson'
p171
sg8
I2013
sg9
S'Portland State Univ, Dept Environm Sci & Management, Portland, OR 97207 USA.'
p172
sa(dp173
g2
S'University of California San Francisco;University of California System'
p174
sg4
S'AMERICAN JOURNAL OF RESPIRATORY AND CRITICAL CARE MEDICINE'
p175
sg6
S'Thakur, Neeta'
p176
sg8
I2013
sg9
S'Univ Calif San Francisco, Dept Med, 505 Parnassus, San Francisco, CA 94143 USA.'
p177
sa(dp178
g2
S'Oregon University System;University of Oregon'
p179
sg4
S'NEUROIMAGE'
p180
sg6
S'Peake, Shannon J.'
p181
sg8
I2013
sg9
S'1227 Univ Oregon, Dept Psychol, Eugene, OR 97403 USA.'
p182
sa(dp183
g2
S'State University of New York (SUNY) System;State University of New York (SUNY) Upstate Medical Center'
p184
sg4
S'PLOS ONE'
p185
sg6
S'Ibarra, Anna M. Stewart'
p186
sg8
I2013
sg9
S'SUNY Upstate Med Univ, Ctr Global Hlth & Translat Sci, Syracuse, NY 13210 USA.'
p187
sa(dp188
g2
S'Harvard University'
p189
sg4
S'NEW ENGLAND JOURNAL OF MEDICINE'
p190
sg6
S'Leaning, Jennifer'
p191
sg8
I2013
sg9
S'Harvard Univ, Sch Publ Hlth, Francois Xavier Bagnoud Ctr Hlth & Human Rights, 651 Huntington Ave,7th Flr, Boston, MA 02115 USA.'
p192
sa(dp193
g2
S'Pennsylvania Commonwealth System of Higher Education (PCSHE);University of Pittsburgh'
p194
sg4
S'ANNALS OF INTERNAL MEDICINE'
p195
sg6
S'Mendenhall, G. Stuart'
p196
sg8
I2013
sg9
S'Univ Pittsburgh, Dept Cardiac Electrophysiol, B-535 Scaife Hall,200 Lothrop St, Pittsburgh, PA 15213 USA.'
p197
sa(dp198
g2
S'University of New Mexico'
p199
sg4
S'PLOS ONE'
p200
sg6
S'Vigil, Jacob M.'
p201
sg8
I2013
sg9
S'Univ New Mexico, Dept Psychol, Albuquerque, NM 87131 USA.'
p202
sa(dp203
g2
S'New York University'
p204
sg4
S'AMERICAN JOURNAL OF SOCIOLOGY'
p205
sg6
S'Abend, Gabriel'
p206
sg8
I2013
sg9
S'NYU, New York, NY 10003 USA.'
p207
sa(dp208
g2
S'Pennsylvania Commonwealth System of Higher Education (PCSHE);University of Pittsburgh'
p209
sg4
S'AMERICAN JOURNAL OF SOCIOLOGY'
p210
sg6
S'Blee, Kathleen'
p211
sg8
I2013
sg9
S'Univ Pittsburgh, Pittsburgh, PA 15260 USA.'
p212
sa(dp213
g2
S'Yale University'
p214
sg4
S'JOURNAL OF NERVOUS AND MENTAL DISEASE'
p215
sg6
S'Ramos, Marco A.'
p216
sg8
I2013
sg9
S'Yale Univ, Sch Med, Yale Program Hist Sci & Med, 26 Clark St, New Haven, CT 06511 USA.'
p217
sa(dp218
g2
g37
sg4
S'AMERICAN JOURNAL OF PUBLIC HEALTH'
p219
sg6
S'Pantell, Matthew'
p220
sg8
I2013
sg9
S'505 Parnassus Ave,Moffitt 691,Box 0110, San Francisco, CA 94143 USA.'
p221
sa(dp222
g2
S'New York University'
p223
sg4
S'AMERICAN JOURNAL OF PUBLIC HEALTH'
p224
sg6
S'Cuffee, Yendelela L.'
p225
sg8
I2013
sg9
S'NYU, Ctr Healthful Behav Change, Dept Populat Hlth, Sch Med, 227 East 30th St,630A, New York, NY 10016 USA.'
p226
sa(dp227
g2
S'University of California Los Angeles;University of California System'
p228
sg4
S'AMERICAN JOURNAL OF PUBLIC HEALTH'
p229
sg6
S'van der Kooi, Anne L. F.'
p230
sg8
I2013
sg9
S'Univ Calif Los Angeles, Fielding Sch Publ Hlth, Dept Epidemiol, 650 Charles E Young Dr South, Los Angeles, CA 90095 USA.'
p231
sa(dp232
g2
g37
sg4
S'INFLUENZA AND OTHER RESPIRATORY VIRUSES'
p233
sg6
S'Basurto-Davila, Ricardo'
p234
sg8
I2013
sg9
S'313 N Figueroa St,Room 121, Los Angeles, CA 90012 USA.'
p235
sa(dp236
g2
S'Duke University'
p237
sg4
S'PSYCHOSOMATIC MEDICINE'
p238
sg6
S'Brummett, Beverly H.'
p239
sg8
I2013
sg9
S'Duke Univ, Med Ctr, Box 2969, Durham, NC 27710 USA.'
p240
sa(dp241
g2
S'University of Arkansas Fayetteville;University of Arkansas System'
p242
sg4
S'SYMBOLIC INTERACTION'
p243
sg6
S'Holyfield, Lori'
p244
sg8
I2013
sg9
S'Univ Arkansas, 211 Old Main, Fayetteville, AR 72701 USA.'
p245
sa(dp246
g2
S'Washington State University'
p247
sg4
S'AMERICAN JOURNAL OF HUMAN BIOLOGY'
p248
sg6
S'Placek, Caitlyn D.'
p249
sg8
I2013
sg9
S'Washington State Univ, Dept Anthropol, POB 644910, Pullman, WA 99163 USA.'
p250
sa(dp251
g2
S'Northwestern University'
p252
sg4
S'AMERICAN JOURNAL OF HUMAN BIOLOGY'
p253
sg6
S'Levy, Stephanie B.'
p254
sg8
I2013
sg9
S'Northwestern Univ, Dept Anthropol, 1810 Hinman Ave, Evanston, IL 60208 USA.'
p255
sa(dp256
g2
S'University System of Maryland;University of Maryland College Park'
p257
sg4
S'INTERNATIONAL JOURNAL OF PSYCHOPHYSIOLOGY'
p258
sg6
S'Hatfield, Bradley D.'
p259
sg8
I2013
sg9
S'Univ Maryland, Sch Publ Hlth, Dept Kinesiol, College Pk, MD 20742 USA.'
p260
sa(dp261
g2
g37
sg4
S'EPILEPSY RESEARCH'
p262
sg6
S'Schiltz, Nicholas K.'
p263
sg8
I2013
sg9
S'11100 Euclid Ave,Lakeside 3200, Cleveland, OH 44106 USA.'
p264
sa(dp265
g2
g37
sg4
S'ANNALS OF PHARMACOTHERAPY'
p266
sg6
S'Kazerooni, Rashid'
p267
sg8
I2013
sg9
S'Vet Affairs San Diego Healthcare Syst, 3350 La Jolla Village Dr 119, La Jolla, CA 92161 USA.'
p268
sa(dp269
g2
S'University of California Los Angeles;University of California System'
p270
sg4
S'PSYCHONEUROENDOCRINOLOGY'
p271
sg6
S'Karlamangla, Arun S.'
p272
sg8
I2013
sg9
S'Univ Calif Los Angeles, David Geffen Sch Med, Div Geriatr, 10945 Le Conte 2339, Los Angeles, CA 90095 USA.'
p273
sa(dp274
g2
S'Illinois State University'
p275
sg4
S'ARCHIVES OF SEXUAL BEHAVIOR'
p276
sg6
S'Sprecher, Susan'
p277
sg8
I2013
sg9
S'Illinois State Univ, Dept Sociol & Anthropol, Normal, IL 61790 USA.'
p278
sa(dp279
g2
g37
sg4
S'ARCHIVES OF SEXUAL BEHAVIOR'
p280
sg6
S'Fielder, Robyn L.'
p281
sg8
I2013
sg9
S'Miriam Hosp, Ctr Behav & Prevent Med, Suite 309,164 Summit Ave, Providence, RI 02906 USA.'
p282
sa(dp283
g2
S'University of Louisville'
p284
sg4
S'ARCHIVES OF SEXUAL BEHAVIOR'
p285
sg6
S'Owen, Jesse'
p286
sg8
I2013
sg9
S'Univ Louisville, Coll Educ, Educ & Counseling Psychol Dept, Louisville, KY 40292 USA.'
p287
sa(dp288
g2
S'University of Nebraska Lincoln;University of Nebraska System'
p289
sg4
S'ARCHIVES OF SEXUAL BEHAVIOR'
p290
sg6
S'Tyler, Kimberly A.'
p291
sg8
I2013
sg9
S'Univ Nebraska, Dept Sociol, Lincoln, NE 68588 USA.'
p292
sa(dp293
g2
S'University of Washington;University of Washington Seattle'
p294
sg4
S'ENVIRONMENTAL HEALTH PERSPECTIVES'
p295
sg6
S'Hajat, Anjum'
p296
sg8
I2013
sg9
S'Univ Washington, Sch Publ Hlth, Dept Environm & Occupat Hlth Sci, 4225 Roosevelt Way NE, Seattle, WA 98105 USA.'
p297
sa(dp298
g2
S'Yale University'
p299
sg4
S'NATURE COMMUNICATIONS'
p300
sg6
S'Shirado, Hirokazu'
p301
sg8
I2013
sg9
S'Yale Univ, Dept Med, New Haven, CT 06520 USA.'
p302
sa(dp303
g2
S'Yale University'
p304
sg4
S'BIOSCIENCE'
p305
sg6
S'Felson, Alexander J.'
p306
sg8
I2013
sg9
S'Yale Univ, Sch Forestry & Environm Studies, New Haven, CT 06511 USA.'
p307
sa(dp308
g2
S'Yale University'
p309
sg4
S'BIOSCIENCE'
p310
sg6
S'Felson, Alexander J.'
p311
sg8
I2013
sg9
S'Yale Univ, Sch Architecture, New Haven, CT USA.'
p312
sa(dp313
g2
S'Mayo Clinic'
p314
sg4
S'CARDIOLOGY CLINICS'
p315
sg6
S'Swetz, Keith M.'
p316
sg8
I2013
sg9
S'Mayo Clin, Sect Palliat Med, 200 1st St SW, Rochester, MN 55905 USA.'
p317
sa(dp318
g2
g37
sg4
S'SEMINARS IN SPEECH AND LANGUAGE'
p319
sg6
S'Leffel, Kristin'
p320
sg8
I2013
sg9
S'5841 S Maryland Ave,MC 1035, Chicago, IL 60637 USA.'
p321
sa(dp322
g2
g37
sg4
S'COMPREHENSIVE PSYCHIATRY'
p323
sg6
S'Allen, Jon G.'
p324
sg8
I2013
sg9
S'Menninger Clin, Houston, TX 77280 USA.'
p325
sa(dp326
g2
g37
sg4
S'RATIONALITY AND SOCIETY'
p327
sg6
S'Wollschleger, Jason'
p328
sg8
I2013
sg9
S'Whitworth Univ, Dept Sociol, 300 W Hawthorne Rd, Spokane, WA 99251 USA.'
p329
sa(dp330
g2
S'University of Iowa'
p331
sg4
S'SOCIAL PROBLEMS'
p332
sg6
S'Berg, Mark T.'
p333
sg8
I2013
sg9
S'Univ Iowa, Dept Sociol, 126 W Seashore Hall, Iowa City, IA 52242 USA.'
p334
sa(dp335
g2
g37
sg4
S'AMERICAN JOURNAL OF OBSTETRICS AND GYNECOLOGY'
p336
sg6
S'Brazell, Hema D.'
p337
sg8
I2013
sg9
S'Hartford Hosp, Dept Obstet & Gynecol, Hartford, CT 06115 USA.'
p338
sa(dp339
g2
S'Duke University'
p340
sg4
S'CELLULAR AND MOLECULAR LIFE SCIENCES'
p341
sg6
S'Tung, Jenny'
p342
sg8
I2013
sg9
S'Duke Univ, Dept Evolutionary Anthropol, Box 90383, Durham, NC 27708 USA.'
p343
sa(dp344
g2
g37
sg4
S'CURRENT OPINION IN RHEUMATOLOGY'
p345
sg6
S'Malcarne, Vanessa L.'
p346
sg8
I2013
sg9
S'SDSU UCSD Joint Doctoral Program Clin Psychol, 6363 Alvarado Court,Suite 103, San Diego, CA 92120 USA.'
p347
sa(dp348
g2
S'Florida State University System;University of South Florida'
p349
sg4
S'INTERNATIONAL JOURNAL OF BEHAVIORAL DEVELOPMENT'
p350
sg6
S'Findley, Danielle'
p351
sg8
I2013
sg9
S'Univ S Florida, Dept Psychol, 4202 E Fowler Ave,PCD 4118G, Tampa, FL 33620 USA.'
p352
sa(dp353
g2
S'Stanford University'
p354
sg4
S'INTERNATIONAL JOURNAL OF BEHAVIORAL DEVELOPMENT'
p355
sg6
S'Davidson, Shannon'
p356
sg8
I2013
sg9
S'Stanford Univ, Sch Educ, 485 Lasuen Mall, Stanford, CA 94305 USA.'
p357
sa(dp358
g2
g37
sg4
S'SLEEP'
p359
sg6
S'Mindell, Jodi A.'
p360
sg8
I2013
sg9
S'St Josephs Univ, Dept Psychol, Philadelphia, PA 19131 USA.'
p361
sa(dp362
g2
g37
sg4
S'SOCIOLOGICAL SPECTRUM'
p363
sg6
S'Spalter-Roth, Roberta'
p364
sg8
I2013
sg9
S'Amer Sociol Assoc, 1430 K St NW 600, Washington, DC 20005 USA.'
p365
sa(dp366
g2
S'Stanford University'
p367
sg4
S'THEORY AND SOCIETY'
p368
sg6
S'Walder, Andrew G.'
p369
sg8
I2013
sg9
S'Stanford Univ, Dept Sociol, Stanford, CA 94305 USA.'
p370
sa(dp371
g2
S'University of Pennsylvania'
p372
sg4
S'AMERICAN JOURNAL OF PREVENTIVE MEDICINE'
p373
sg6
S'Cannuscio, Carolyn C.'
p374
sg8
I2013
sg9
S'Univ Penn, Dept Family Med & Community Hlth, 3620 Hamilton Walk,Rm 145, Philadelphia, PA 19104 USA.'
p375
sa(dp376
g2
S'University of Cincinnati'
p377
sg4
S'JOURNAL OF PEDIATRICS'
p378
sg6
S'Apostolakis-Kyrus, Katherine'
p379
sg8
I2013
sg9
S'Univ Cincinnati, Coll Med, Dept Obstet & Gynecol, Med Sci Bldg Room 5464,231 Albert Sabin Way, Cincinnati, OH 45267 USA.'
p380
sa(dp381
g2
g37
sg4
S'COMPLEXITY'
p382
sg6
S'Herdagdelen, Amac'
p383
sg8
I2013
sg9
S'New England Complex Syst Inst, 238 Main St Suite 319, Cambridge, MA 02142 USA.'
p384
sa(dp385
g2
S'University of Chicago'
p386
sg4
S'PSYCHOPHARMACOLOGY'
p387
sg6
S'Kirkpatrick, Matthew G.'
p388
sg8
I2013
sg9
S'Univ Chicago, Dept Psychiat & Behav Neurosci, 5841 S Maryland Ave,MC 3077, Chicago, IL 60637 USA.'
p389
sa(dp390
g2
S'University of Michigan;University of Michigan System'
p391
sg4
S'STROKE'
p392
sg6
S'Levine, Deborah A.'
p393
sg8
I2013
sg9
S'Univ Michigan, NCRC Bldg 16 Rm 430W,2800 Plymouth Rd, Ann Arbor, MI 48109 USA.'
p394
sa(dp395
g2
S'University of California Berkeley;University of California System'
p396
sg4
S'INTERNATIONAL SOCIOLOGY'
p397
sg6
S'Swidler, Ann'
p398
sg8
I2013
sg9
S'Univ Calif Berkeley, Dept Sociol, 410 Barrows Hall,MC 1980, Berkeley, CA 94720 USA.'
p399
sa(dp400
g2
g37
sg4
S'JOURNAL OF AFFECTIVE DISORDERS'
p401
sg6
S'Liu, Richard T.'
p402
sg8
I2013
sg9
S'Brown Univ, Dept Psychiat & Human Behav, 1011Veterans Mem Pkwy, East Providence, RI 02915 USA.'
p403
sa(dp404
g2
S'Harvard University;Massachusetts General Hospital;VA Boston Healthcare System'
p405
sg4
S'JOURNAL OF GENERAL INTERNAL MEDICINE'
p406
sg6
S'Percac-Lima, Sanja'
p407
sg8
I2013
sg9
S'Massachusetts Gen Hosp, Chelsea HealthCare Ctr, 151 Everett Ave, Chelsea, MA 02150 USA.'
p408
sa(dp409
g2
S'Florida State University System;University of Florida'
p410
sg4
S'SOCIAL SCIENCE RESEARCH'
p411
sg6
S'Pienaar, Elizabeth F.'
p412
sg8
I2013
sg9
S'Univ Florida, Inst Food & Agr Sci, Dept Wildlife Ecol & Conservat, POB 110430, Gainesville, FL 32611 USA.'
p413
sa(dp414
g2
S'University of Notre Dame'
p415
sg4
S'PARASITE IMMUNOLOGY'
p416
sg6
S'Archie, E. A.'
p417
sg8
I2013
sg9
S'Univ Notre Dame, Dept Biol Sci, 137 Galvin Life Sci Bldg, Notre Dame, IN 46556 USA.'
p418
sa(dp419
g2
S'Virginia Polytechnic Institute & State University'
p420
sg4
S'ADDICTIVE BEHAVIORS'
p421
sg6
S'Schry, Amie R.'
p422
sg8
I2013
sg9
S'Virginia Tech, Dept Psychol, 109 Williams Hall 0436, Blacksburg, VA 24061 USA.'
p423
sa(dp424
g2
S'University of Miami'
p425
sg4
S'ADDICTIVE BEHAVIORS'
p426
sg6
S'Hooper, Monica Webb'
p427
sg8
I2013
sg9
S'Univ Miami, Dept Psychol, Sylvester Comprehens Canc Ctr, POB 248185, Coral Gables, FL 33124 USA.'
p428
sa(dp429
g2
g37
sg4
S'ADDICTIVE BEHAVIORS'
p430
sg6
S'Heinz, Adrienne J.'
p431
sg8
I2013
sg9
S'Palo Alto Vet Affairs Hlth Care Syst, Ctr Hlth Care Evaluat, 795 Willow RD MPD 152, Menlo Pk, CA 94025 USA.'
p432
sa(dp433
g2
S'Johns Hopkins University'
p434
sg4
S'JOURNAL OF BIOSOCIAL SCIENCE'
p435
sg6
S'Ellis, Amy A.'
p436
sg8
I2013
sg9
S'Johns Hopkins Bloomberg Sch Publ Hlth, Dept Int Hlth, Baltimore, MD 21205 USA.'
p437
sa(dp438
g2
S'University of North Carolina;University of North Carolina Chapel Hill'
p439
sg4
S'JOURNAL OF BIOSOCIAL SCIENCE'
p440
sg6
S'Brodish, Paul Henry'
p441
sg8
I2013
sg9
S'Univ N Carolina, Carolina Populat Ctr, MEASURE Evaluat, Chapel Hill, NC 27515 USA.'
p442
sa(dp443
g2
g37
sg4
S'JOURNAL OF ARCHAEOLOGICAL SCIENCE'
p444
sg6
S'Bernardini, Wesley'
p445
sg8
I2013
sg9
S'Univ Redlands, Dept Sociol & Anthropol, 1200 E Colton Ave, Redlands, CA 92373 USA.'
p446
sa(dp447
g2
g37
sg4
S'CRITICAL SOCIOLOGY'
p448
sg6
S'Dello Buono, R. A.'
p449
sg8
I2013
sg9
S'Manhattan Coll, 4513 Manhattan Coll Pkwy, New York, NY 10463 USA.'
p450
sa(dp451
g2
S'Kutztown University - Pennsylvania;Pennsylvania State System of Higher Education (PASSHE)'
p452
sg4
S'CRITICAL SOCIOLOGY'
p453
sg6
S'Fu, Albert S.'
p454
sg8
I2013
sg9
S'Kutztown State Univ, Anthropol Sociol Dept, POB 730, Kutztown, PA 19530 USA.'
p455
sa(dp456
g2
S'Northwestern University'
p457
sg4
S'JOURNAL OF NEUROSCIENCE'
p458
sg6
S'Skoe, Erika'
p459
sg8
I2013
sg9
S'Northwestern Univ, 2240 Campus Dr, Evanston, IL 60208 USA.'
p460
sa(dp461
g2
S'University of Michigan;University of Michigan System'
p462
sg4
S'PROCEEDINGS OF THE NATIONAL ACADEMY OF SCIENCES OF THE UNITED STATES OF AMERICA'
p463
sg6
S'Falk, Emily B.'
p464
sg8
I2013
sg9
S'Univ Michigan, Dept Commun Studies, Ann Arbor, MI 48109 USA.'
p465
sa(dp466
g2
S'University of Colorado Boulder;University of Colorado System'
p467
sg4
S'SCIENTIFIC REPORTS'
p468
sg6
S'Merritt, Sears'
p469
sg8
I2013
sg9
S'Univ Colorado, Dept Comp Sci, Boulder, CO 80309 USA.'
p470
sa(dp471
g2
g37
sg4
S'PLOS ONE'
p472
sg6
S'Wagnild, Janelle'
p473
sg8
I2013
sg9
S'Seattle Pacific Univ, Dept Biol, Seattle, WA 98119 USA.'
p474
sa(dp475
g2
g37
sg4
S'LIFE SCIENCES'
p476
sg6
S'Butler, Robert W.'
p477
sg8
I2013
sg9
S'Austin Hatcher Fdn, 979 East 3rd St,Ste C-232, Chattanooga, TN 37403 USA.'
p478
sa(dp479
g2
g37
sg4
S'PLOS ONE'
p480
sg6
S'Koblin, Beryl A.'
p481
sg8
I2013
sg9
S'New York Blood Ctr, Lindsley F Kimball Res Inst, Lab Infect Dis Prevent, New York, NY 10021 USA.'
p482
sa(dp483
g2
S'NIH National Institute of Mental Health (NIMH);National Institutes of Health (NIH) - USA'
p484
sg4
S'BIOLOGICAL PSYCHIATRY'
p485
sg6
S'Raznahan, Armin'
p486
sg8
I2013
sg9
S'NIMH, NIH, Child Psychiat Branch, Room 4C108,Bldg 10,10 Ctr Dr, Bethesda, MD 20892 USA.'
p487
sa(dp488
g2
S'Monell Chemical Senses Center;University of Pennsylvania'
p489
sg4
S'PLOS ONE'
p490
sg6
S'Dalton, Pamela'
p491
sg8
I2013
sg9
S'Monell Chem Senses Ctr, 3500 Market St, Philadelphia, PA 19104 USA.'
p492
sa(dp493
g2
S'Harvard University'
p494
sg4
S'PROCEEDINGS OF THE NATIONAL ACADEMY OF SCIENCES OF THE UNITED STATES OF AMERICA'
p495
sg6
S'Powell, Lindsey J.'
p496
sg8
I2013
sg9
S'Harvard Univ, Dept Psychol, 33 Kirkland St, Cambridge, MA 02138 USA.'
p497
sa(dp498
g2
S'Duke University'
p499
sg4
S'PLOS ONE'
p500
sg6
S'Whetten, Kathryn'
p501
sg8
I2013
sg9
S'Duke Univ, Duke Global Hlth Inst, Ctr Hlth Policy, Durham, NC USA.'
p502
sa(dp503
g2
S'Indiana University Bloomington;Indiana University System'
p504
sg4
S'AMERICAN JOURNAL OF PUBLIC HEALTH'
p505
sg6
S"D'Onofrio, Brian M."
p506
sg8
I2013
sg9
S'Indiana Univ, Dept Psychol & Brain Sci, 1101 East 10th St, Bloomington, IN 47405 USA.'
p507
sa(dp508
g2
S'University of Michigan;University of Michigan System'
p509
sg4
S'AMERICAN JOURNAL OF PUBLIC HEALTH'
p510
sg6
S'Geronimus, Arline T.'
p511
sg8
I2013
sg9
S'Univ Michigan, Sch Publ Hlth, Dept Hlth Behav & Hlth Educ, 1415 Washington Hts, Ann Arbor, MI 48109 USA.'
p512
sa(dp513
g2
S'University of Colorado Boulder;University of Colorado System'
p514
sg4
S'AMERICAN JOURNAL OF PUBLIC HEALTH'
p515
sg6
S'Boardman, Jason D.'
p516
sg8
I2013
sg9
S'Univ Colorado, Dept Sociol, Inst Behav Sci, 1440 15th St, Boulder, CO 80309 USA.'
p517
sa(dp518
g2
S'University of California Los Angeles;University of California System'
p519
sg4
S'AMERICAN JOURNAL OF PUBLIC HEALTH'
p520
sg6
S'Cole, Steven W.'
p521
sg8
I2013
sg9
S'UCLA Sch Med, Dept Med, Div Hematol Oncol, 11-934 Factor Bldg, Los Angeles, CA 90095 USA.'
p522
sa(dp523
g2
S'Brown University'
p524
sg4
S'AMERICAN JOURNAL OF PUBLIC HEALTH'
p525
sg6
S'Short, Susan E.'
p526
sg8
I2013
sg9
S'Brown Univ, Box 1916 Maxcy Hall,112 George St, Providence, RI 02912 USA.'
p527
sa(dp528
g2
g37
sg4
S'AMERICAN JOURNAL OF PUBLIC HEALTH'
p529
sg6
S'Mitchell, Colter'
p530
sg8
I2013
sg9
S'2264 ISR,426 Thomposon St, Ann Arbor, MI 48106 USA.'
p531
sa(dp532
g2
S'Yale University'
p533
sg4
S'AMERICAN JOURNAL OF PUBLIC HEALTH'
p534
sg6
S'Reiss, David'
p535
sg8
I2013
sg9
S'Yale Univ, Ctr Child Study, POB 207900, New Haven, CT 06520 USA.'
p536
sa(dp537
g2
S'Northwestern University'
p538
sg4
S'AMERICAN JOURNAL OF PUBLIC HEALTH'
p539
sg6
S'Chiao, Joan Y.'
p540
sg8
I2013
sg9
S'Northwestern Univ, Dept Psychol, 2029 Sheridan Rd, Evanston, IL 60208 USA.'
p541
sa(dp542
g2
S'University of Wisconsin Madison;University of Wisconsin System'
p543
sg4
S'AMERICAN JOURNAL OF PUBLIC HEALTH'
p544
sg6
S'Roetker, Nicholas S.'
p545
sg8
I2013
sg9
S'Univ Wisconsin Madison Sch Med & Publ Hlth, William S Middleton Mem Vet Hosp GRECC 11G, 2500 Overlook Terrace, Madison, WI 53705 USA.'
p546
sa(dp547
g2
S'Virginia Commonwealth University'
p548
sg4
S'AMERICAN JOURNAL OF PUBLIC HEALTH'
p549
sg6
S'Mezuk, Briana'
p550
sg8
I2013
sg9
S'Virginia Commonwealth Univ, Dept Family Med & Populat Hlth, POB 980212, Richmond, VA 23298 USA.'
p551
sa(dp552
g2
g37
sg4
S'AMERICAN JOURNAL OF PUBLIC HEALTH'
p553
sg6
S'Chabris, Christopher F.'
p554
sg8
I2013
sg9
S'Union Coll, Dept Psychol, 807 Union St, Schenectady, NY 12308 USA.'
p555
sa(dp556
g2
S'Harvard University'
p557
sg4
S'AMERICAN JOURNAL OF PUBLIC HEALTH'
p558
sg6
S'Wright, Joe'
p559
sg8
I2013
sg9
S'Beth Israel Deaconess Med Ctr, 330 Brookline Ave, Boston, MA 02215 USA.'
p560
sa(dp561
g2
g37
sg4
S'AMERICAN JOURNAL OF PUBLIC HEALTH'
p562
sg6
S'Bradford, Judith'
p563
sg8
I2013
sg9
S'Ctr Populat Res LGBT Hlth, Fenway Inst, 1340 Boylston St,Ansin Bldg, Boston, MA 02215 USA.'
p564
sa(dp565
g2
g37
sg4
S'AMERICAN JOURNAL OF PUBLIC HEALTH'
p566
sg6
S'Shea, Steven'
p567
sg8
I2013
sg9
S'Div Gen Med, 630 W 168th St, New York, NY 10032 USA.'
p568
sa(dp569
g2
S'Vanderbilt University'
p570
sg4
S'AMERICAN JOURNAL OF PUBLIC HEALTH'
p571
sg6
S'Aldrich, Melinda C.'
p572
sg8
I2013
sg9
S'Vanderbilt Univ, Inst Med & Publ Hlth, Dept Thorac Surg, 609 Oxford House,1313 21st Ave South, Nashville, TN 37232 USA.'
p573
sa(dp574
g2
S'University of Wisconsin Madison;University of Wisconsin System'
p575
sg4
S'AMERICAN JOURNAL OF PUBLIC HEALTH'
p576
sg6
S'Fletcher, Jason M.'
p577
sg8
I2013
sg9
S'Univ Wisconsin, La Follette Sch Publ Affairs, 1225 Observ Dr Madison, Madison, WI 53706 USA.'
p578
sa(dp579
g2
S'University of North Carolina;University of North Carolina Chapel Hill'
p580
sg4
S'AMERICAN JOURNAL OF PUBLIC HEALTH'
p581
sg6
S'Harris, Kathleen Mullan'
p582
sg8
I2013
sg9
S'Univ N Carolina, Add Hlth Carolina Populat Ctr, CB 8120,Univ Sq 123 West Franklin St,Room 403B, Chapel Hill, NC 27516 USA.'
p583
sa(dp584
g2
S'University of North Carolina;University of North Carolina Chapel Hill'
p585
sg4
S'AMERICAN JOURNAL OF PUBLIC HEALTH'
p586
sg6
S'Jackson, Fatimah L. C.'
p587
sg8
I2013
sg9
S'Univ N Carolina, Dept Anthropol, 301 Alumni Bldg,CB 3115, Chapel Hill, NC 27599 USA.'
p588
sa(dp589
g2
S'University of Michigan;University of Michigan System'
p590
sg4
S'JOURNAL OF EPIDEMIOLOGY AND COMMUNITY HEALTH'
p591
sg6
S'Moore, Kari'
p592
sg8
I2013
sg9
S'Univ Michigan, Sch Publ Hlth, Dept Epidemiol, 1415 Washington Hts, Ann Arbor, MI 48109 USA.'
p593
sa(dp594
g2
S'University of California San Francisco;University of California System'
p595
sg4
S'ARCHIVES OF DISEASE IN CHILDHOOD'
p596
sg6
S'Unger, Alon'
p597
sg8
I2013
sg9
S'Univ Calif San Francisco, Div Hosp Med, 533 Parnassus Ave,Suite U127A,Box 0131, San Francisco, CA 94143 USA.'
p598
sa(dp599
g2
S'University of Texas Medical Branch Galveston'
p600
sg4
S'JOURNAL OF ADDICTIVE DISEASES'
p601
sg6
S'Rote, Sunshine M.'
p602
sg8
I2013
sg9
S'Univ Texas Med Branch, Sealy Ctr Aging, 301 Univ Blvd, Galveston, TX 77555 USA.'
p603
sa(dp604
g2
S'Southern Illinois University;Southern Illinois University System'
p605
sg4
S'ACCIDENT ANALYSIS AND PREVENTION'
p606
sg6
S'Garcia-Herrero, Susana'
p607
sg8
I2013
sg9
S'So Illinois Univ, Carbondale, IL 62901 USA.'
p608
sa(dp609
g2
S'University of Akron'
p610
sg4
S'SEXUALITIES'
p611
sg6
S'Jauk, Daniela'
p612
sg8
I2013
sg9
S'Univ Akron, Dept Sociol, Olin Hall 275A, Akron, OH 44325 USA.'
p613
sa(dp614
g2
S'Harvard University'
p615
sg4
S'INTERNATIONAL JOURNAL OF EPIDEMIOLOGY'
p616
sg6
S'Subramanian, S. V.'
p617
sg8
I2013
sg9
S'Harvard Univ, Sch Publ Hlth, Dept Social & Behav Sci, 677 Huntington Ave,KRESGE 7th Floor, Boston, MA 02115 USA.'
p618
sa(dp619
g2
S'Emory University'
p620
sg4
S'INTERNATIONAL JOURNAL OF EPIDEMIOLOGY'
p621
sg6
S'Narayan, K. M. Venkat'
p622
sg8
I2013
sg9
S'Emory Univ, 1518 Clifton Rd NE, Atlanta, GA 30322 USA.'
p623
sa(dp624
g2
S'Harvard University'
p625
sg4
S'INTERNATIONAL JOURNAL OF EPIDEMIOLOGY'
p626
sg6
S'Subramanian, S. V.'
p627
sg8
I2013
sg9
S'Harvard Univ, Sch Publ Hlth, Dept Social & Behav Sci, 677 Huntington Ave,KRESGE 7th Floor, Boston, MA 02115 USA.'
p628
sa(dp629
g2
S'University of Colorado Boulder;University of Colorado System'
p630
sg4
S'INTERNATIONAL JOURNAL OF EPIDEMIOLOGY'
p631
sg6
S'Houle, Brian'
p632
sg8
I2013
sg9
S'Univ Colorado, Inst Behav Sci, 1440 15th St,483 UCB, Boulder, CO 80309 USA.'
p633
sa(dp634
g2
S'Centers for Disease Control & Prevention - USA'
p635
sg4
S'ENVIRONMENTAL RESEARCH'
p636
sg6
S'Gray, Simone C.'
p637
sg8
I2013
sg9
S'Ctr Dis Control & Prevent, Quantitat Sci & Data Management Branch, 1600 Clifton Rd NE,Mailstop E-48, Atlanta, GA 30333 USA.'
p638
sa(dp639
g2
S'University of Michigan;University of Michigan System'
p640
sg4
S'JOURNAL OF CHILD NEUROLOGY'
p641
sg6
S'McNamara, Nancy A.'
p642
sg8
I2013
sg9
S'Univ Michigan, Dept Pediat & Communicable Dis, CS Mott Childrens Hosp, Room 12-733,1540 E Hosp Dr, Ann Arbor, MI 48109 USA.'
p643
sa(dp644
g2
S'Florida State University;Florida State University System'
p645
sg4
S'JOURNAL OF CHILD PSYCHOLOGY AND PSYCHIATRY'
p646
sg6
S'Hart, Sara A.'
p647
sg8
I2013
sg9
S'Florida State Univ, Dept Psychol, Tallahassee, FL 32306 USA.'
p648
sa(dp649
g2
S'University of California San Diego;University of California System'
p650
sg4
S'PSYCHONEUROENDOCRINOLOGY'
p651
sg6
S'Franz, Carol E.'
p652
sg8
I2013
sg9
S'Univ Calif San Diego, Dept Psychiat, 9500 Gilman Dr,MC 0738, La Jolla, CA 92093 USA.'
p653
sa(dp654
g2
S'University of Colorado Boulder;University of Colorado System'
p655
sg4
S'PSYCHONEUROENDOCRINOLOGY'
p656
sg6
S'Herzmann, Grit'
p657
sg8
I2013
sg9
S'Univ Colorado, Dept Psychol & Neurosci, UCB 345, Boulder, CO 80309 USA.'
p658
sa(dp659
g2
S'University of Michigan;University of Michigan System'
p660
sg4
S'ARCHIVES OF SEXUAL BEHAVIOR'
p661
sg6
S'van Anders, Sari M.'
p662
sg8
I2013
sg9
S'Univ Michigan, Dept Psychol, 530 Church St, Ann Arbor, MI 48109 USA.'
p663
sa(dp664
g2
S'Indiana University Bloomington;Indiana University System'
p665
sg4
S'ARCHIVES OF SEXUAL BEHAVIOR'
p666
sg6
S'Wright, Paul J.'
p667
sg8
I2013
sg9
S'Indiana Univ, Dept Telecommun, 1229 East 7th St, Bloomington, IN 47405 USA.'
p668
sa(dp669
g2
S'University of California San Francisco;University of California System'
p670
sg4
S'ARCHIVES OF SEXUAL BEHAVIOR'
p671
sg6
S'Tan, Judy Y.'
p672
sg8
I2013
sg9
S'Univ Calif San Francisco, Dept Med, Ctr AIDS Prevent Studies, San Francisco, CA 94105 USA.'
p673
sa(dp674
g2
S'Columbia University'
p675
sg4
S'BRITISH JOURNAL OF PSYCHIATRY'
p676
sg6
S'Yang, Lawrence H.'
p677
sg8
I2013
sg9
S'Columbia Univ, Dept Epidemiol, Sch Publ Hlth, 722 West 168th St,Room 1610, New York, NY 10032 USA.'
p678
sa(dp679
g2
S'H Lee Moffitt Cancer Center & Research Institute'
p680
sg4
S'CANCER EPIDEMIOLOGY BIOMARKERS & PREVENTION'
p681
sg6
S'Schabath, Matthew B.'
p682
sg8
I2013
sg9
S'H Lee Moffitt Canc Ctr & Res Inst, CANCONT, 12902 Magnolia Dr MRC, Tampa, FL 33612 USA.'
p683
sa(dp684
g2
S'North Carolina State University;University of North Carolina'
p685
sg4
S'ECOLOGICAL ECONOMICS'
p686
sg6
S'Liu, Xiangping'
p687
sg8
I2013
sg9
S'N Carolina State Univ, Ctr Environm & Resource Econ Policy, Campus Box 8109, Raleigh, NC 27695 USA.'
p688
sa(dp689
g2
S'Northwestern University'
p690
sg4
S'EUROPEAN JOURNAL OF EPIDEMIOLOGY'
p691
sg6
S'Kershaw, Kiarri N.'
p692
sg8
I2013
sg9
S'Northwestern Univ, Dept Prevent Med, Feinberg Sch Med, 680 N Lake Shore Dr,Suite 1400, Chicago, IL 60611 USA.'
p693
sa(dp694
g2
S'Arizona State University;Arizona State University'
p695
sg4
S'JOURNAL OF THE AMERICAN GERIATRICS SOCIETY'
p696
sg6
S'Zayas, Luis E.'
p697
sg8
I2013
sg9
S'Arizona State Univ, Sch Social Work, 411 North Cent Ave,Suite 800, Phoenix, AZ 85004 USA.'
p698
sa(dp699
g2
S'Ohio State University'
p700
sg4
S'CURRENT ANTHROPOLOGY'
p701
sg6
S'McCorriston, Joy'
p702
sg8
I2013
sg9
S'Ohio State Univ, Dept Anthropol, 4034 Smith Labs,174 West 18th Ave, Columbus, OH 43210 USA.'
p703
sa(dp704
g2
g37
sg4
S'DRUG AND ALCOHOL DEPENDENCE'
p705
sg6
S'Shimotsu, Scott T.'
p706
sg8
I2013
sg9
S'Hennepin Cty Med Ctr, 701 Pk Ave, Minneapolis, MN 55415 USA.'
p707
sa(dp708
g2
S'Stanford University'
p709
sg4
S'EMOTION'
p710
sg6
S'Zaki, Jamil'
p711
sg8
I2013
sg9
S'Stanford Univ, Dept Psychol, Stanford, CA 94305 USA.'
p712
sa(dp713
g2
S'Arizona State University'
p714
sg4
S'EMOTION'
p715
sg6
S'Taylor, Zoe E.'
p716
sg8
I2013
sg9
S'Arizona State Univ, Dept Psychol, 950 S McAllister, Tempe, AZ 85287 USA.'
p717
sa(dp718
g2
S'Seattle University'
p719
sg4
S'HUMAN ECOLOGY'
p720
sg6
S'Murtinho, Felipe'
p721
sg8
I2013
sg9
S'Seattle Univ, Inst Publ Serv, POB 222000, Seattle, WA 98122 USA.'
p722
sa(dp723
g2
g37
sg4
S'JOURNAL OF ALLERGY AND CLINICAL IMMUNOLOGY'
p724
sg6
S'Kumar, Rajesh'
p725
sg8
I2013
sg9
S'Childrens Mem Hosp, Div Allergy & Clin Immunol, 2300 Childrens Plaza,Box 60, Chicago, IL 60614 USA.'
p726
sa(dp727
g2
g37
sg4
S'MARINE MAMMAL SCIENCE'
p728
sg6
S'Wells, Randall S.'
p729
sg8
I2013
sg9
S'Mote Marine Lab, Chicago Zool Soc, 1600 Ken Thompson Pkwy, Sarasota, FL 34236 USA.'
p730
sa(dp731
g2
g37
sg4
S'RESEARCH IN DEVELOPMENTAL DISABILITIES'
p732
sg6
S'Derrington, Taletha Mae'
p733
sg8
I2013
sg9
S'333 Ravenswood Ave, Menlo Pk, CA 94025 USA.'
p734
sa(dp735
g2
S'University of California San Francisco;University of California System'
p736
sg4
S'SOCIOLOGY-THE JOURNAL OF THE BRITISH SOCIOLOGICAL ASSOCIATION'
p737
sg6
S'Bliss, Catherine'
p738
sg8
I2013
sg9
S'Univ Calif San Francisco, 333 Calif St, San Francisco, CA 94118 USA.'
p739
sa(dp740
g2
S'University of Louisville'
p741
sg4
S'SURGERY'
p742
sg6
S'Smith, Jason W.'
p743
sg8
I2013
sg9
S'Univ Louisville, Hiram C Polk Dept Surg, 550 South Jackson St, Louisville, KY 40204 USA.'
p744
sa(dp745
g2
S'Mount Sinai School of Medicine'
p746
sg4
S'WORLD JOURNAL OF UROLOGY'
p747
sg6
S'Small, Alexander C.'
p748
sg8
I2013
sg9
S'Mt Sinai Sch Med, Tisch Canc Inst, Div Hematol & Med Oncol, 1 Gustave L Levy Pl, New York, NY 10029 USA.'
p749
sa(dp750
g2
g37
sg4
S'WORLD JOURNAL OF UROLOGY'
p751
sg6
S'Muller, Roberto L.'
p752
sg8
I2013
sg9
S'DUMC, Dept Surg, Div Urol Surg, Box 2626, Durham, NC 27710 USA.'
p753
sa(dp754
g2
S'University of Alabama Huntsville;University of Alabama System'
p755
sg4
S'AMERICAN SOCIOLOGICAL REVIEW'
p756
sg6
S'Steidl, Christina R.'
p757
sg8
I2013
sg9
S'Univ Alabama, 344D Morton Hall, Huntsville, AL 35899 USA.'
p758
sa(dp759
g2
S'University of Medicine & Dentistry New Jersey'
p760
sg4
S'ANNALS OF EPIDEMIOLOGY'
p761
sg6
S'Echeverria, Sandra E.'
p762
sg8
I2013
sg9
S'Univ Med & Dent New Jersey, Dept Epidemiol, Sch Publ Hlth, 683 Hoes Lane West,Room 205, Piscataway, NJ 08854 USA.'
p763
sa(dp764
g2
S'George Mason University'
p765
sg4
S'BEHAVIOUR RESEARCH AND THERAPY'
p766
sg6
S'Kashdan, Todd B.'
p767
sg8
I2013
sg9
S'George Mason Univ, Dept Psychol, MS 3F5, Fairfax, VA 22030 USA.'
p768
sa(dp769
g2
S'Florida State University System;University of South Florida'
p770
sg4
S'COMPREHENSIVE PSYCHIATRY'
p771
sg6
S'McGuire, Joseph F.'
p772
sg8
I2013
sg9
S'Univ S Florida, Dept Pediat, 880 6th St South,Suite 460,Box 7523, St Petersburg, FL 33701 USA.'
p773
sa(dp774
g2
g37
sg4
S'CONTRACEPTION'
p775
sg6
S'Farid, Huma'
p776
sg8
I2013
sg9
S'Womens Hlth Inst, New Brunswick, NJ 08901 USA.'
p777
sa(dp778
g2
S'University of California San Diego;University of California System'
p779
sg4
S'CURRENT ANTHROPOLOGY'
p780
sg6
S'Vora, Kalindi'
p781
sg8
I2013
sg9
S'Univ Calif San Diego, La Jolla, CA 92103 USA.'
p782
sa(dp783
g2
S'University of Wisconsin Madison;University of Wisconsin System'
p784
sg4
S'INTERNATIONAL JOURNAL OF SUSTAINABLE DEVELOPMENT AND WORLD ECOLOGY'
p785
sg6
S'Allendorf, Teri D.'
p786
sg8
I2013
sg9
S'Univ Wisconsin, Dept Forest & Wildlife Ecol, Madison, WI 53560 USA.'
p787
sa(dp788
g2
S'Emory University'
p789
sg4
S'JAMA PSYCHIATRY'
p790
sg6
S'Cummings, Janet R.'
p791
sg8
I2013
sg9
S'Emory Univ, Dept Hlth Policy & Management, 1518 Clifton Rd NE,Room 650, Atlanta, GA 30322 USA.'
p792
sa(dp793
g2
S'University of California Los Angeles;University of California System'
p794
sg4
S'PREVENTIVE MEDICINE'
p795
sg6
S'Bharmal, Nazleen'
p796
sg8
I2013
sg9
S'Univ Calif Los Angeles, Dept Med, Div Gen Internal Med & Hlth Serv Res, Los Angeles, CA 90024 USA.'
p797
sa(dp798
g2
S'University of Delaware'
p799
sg4
S'PREVENTIVE MEDICINE'
p800
sg6
S'Cotugna, Nancy'
p801
sg8
I2013
sg9
S'Univ Delaware, Dept Behav Hlth & Nutr, 26 N Coll Ave, Newark, DE 19701 USA.'
p802
sa(dp803
g2
S'Yale University'
p804
sg4
S'PROCEEDINGS OF THE NATIONAL ACADEMY OF SCIENCES OF THE UNITED STATES OF AMERICA'
p805
sg6
S'Keil, Frank C.'
p806
sg8
I2013
sg9
S'Yale Univ, Dept Psychol, New Haven, CT 06520 USA.'
p807
sa(dp808
g2
S'University of North Carolina;University of North Carolina Chapel Hill'
p809
sg4
S'PSYCHOPHYSIOLOGY'
p810
sg6
S'Neblett, Enrique W., Jr.'
p811
sg8
I2013
sg9
S'Univ N Carolina, Dept Psychol, 250 Davie Hall, Chapel Hill, NC 27599 USA.'
p812
sa(dp813
g2
S'Colorado State University'
p814
sg4
S'SOCIOLOGIA RURALIS'
p815
sg6
S'Carolan, Michael S.'
p816
sg8
I2013
sg9
S'Colorado State Univ, Dept Sociol, Ft Collins, CO 80523 USA.'
p817
sa(dp818
g2
S'University of California Riverside;University of California System'
p819
sg4
S'SOCIOLOGY OF EDUCATION'
p820
sg6
S'Brint, Steven'
p821
sg8
I2013
sg9
S'Univ Calif Riverside, 0321 SURGE, Riverside, CA 92521 USA.'
p822
sa(dp823
g2
S'University of California San Diego;University of California System'
p824
sg4
S'SOCIOLOGY OF EDUCATION'
p825
sg6
S'Binder, Amy J.'
p826
sg8
I2013
sg9
S'Univ Calif San Diego, Dept Sociol, 9500 Gilman Dr,Sci Bldg, La Jolla, CA 92093 USA.'
p827
sa(dp828
g2
S'University of Pennsylvania'
p829
sg4
S'SOCIOLOGY OF EDUCATION'
p830
sg6
S'Park, Hyunjoon'
p831
sg8
I2013
sg9
S'Univ Penn, Dept Sociol, 3718 Locust Walk,219 McNeil Bldg, Philadelphia, PA 19104 USA.'
p832
sa(dp833
g2
S'University of Wisconsin System'
p834
sg4
S'TEACHING SOCIOLOGY'
p835
sg6
S'Norris, Dawn R.'
p836
sg8
I2013
sg9
S'Univ Wisconsin, Dept Sociol & Archaeol, 1725 State St,435 Wimberly Hall, La Crosse, WI 54601 USA.'
p837
sa(dp838
g2
S'Indiana University Bloomington;Indiana University System'
p839
sg4
S'TEACHING SOCIOLOGY'
p840
sg6
S'Hatteberg, Sarah J.'
p841
sg8
I2013
sg9
S'Indiana Univ, Ballantine Hall 744,1020 E Kirkwood Ave, Bloomington, IN 47405 USA.'
p842
sa(dp843
g2
S'State University of New York (SUNY) Albany;State University of New York (SUNY) System'
p844
sg4
S'TEACHING SOCIOLOGY'
p845
sg6
S'Hourigan, Kristen Lee'
p846
sg8
I2013
sg9
S'SUNY Albany, 1400 Washington Ave, Albany, NY 12222 USA.'
p847
sa(dp848
g2
S'North Carolina State University;University of North Carolina'
p849
sg4
S'TEACHING SOCIOLOGY'
p850
sg6
S'Parrotta, Kylie L.'
p851
sg8
I2013
sg9
S'N Carolina State Univ, 1911 Bldg,Box 8107, Raleigh, NC 27695 USA.'
p852
sa(dp853
g2
S'Kennesaw State University;University System of Georgia'
p854
sg4
S'TEACHING SOCIOLOGY'
p855
sg6
S'Treiber, Linda Ann'
p856
sg8
I2013
sg9
S'Kennesaw State Univ, 1000 Chastain Rd,MD 2204, Kennesaw, GA 30144 USA.'
p857
sa(dp858
g2
S'University of Colorado Boulder;University of Colorado System'
p859
sg4
S'AMERICAN JOURNAL OF BIOETHICS'
p860
sg6
S'Haramia, Chelsea'
p861
sg8
I2013
sg9
S'Univ Colorado, Dept Philosophy, UCB 232, Boulder, CO 80309 USA.'
p862
sa(dp863
g2
S'Southern Illinois University Edwardsville;Southern Illinois University System'
p864
sg4
S'AMERICAN JOURNAL OF BIOETHICS'
p865
sg6
S'Davis, Georgiann'
p866
sg8
I2013
sg9
S'So Illinois Univ, Dept Sociol & Criminal Justice Studies, Box 1455, Edwardsville, IL 62026 USA.'
p867
sa(dp868
g2
S'New Mexico State University'
p869
sg4
S'AMERICAN JOURNAL OF BIOETHICS'
p870
sg6
S'Trafimow, David'
p871
sg8
I2013
sg9
S'New Mexico State Univ, MSC 3452,POB 30001, Las Cruces, NM 88003 USA.'
p872
sa(dp873
g2
S'Pennsylvania Commonwealth System of Higher Education (PCSHE);University of Pittsburgh'
p874
sg4
S'ANNALS OF BEHAVIORAL MEDICINE'
p875
sg6
S'Burford, Tanisha I.'
p876
sg8
I2013
sg9
S'Univ Pittsburgh, Dept Psychiat, 3811 Ohara St, Pittsburgh, PA 15213 USA.'
p877
sa(dp878
g2
g37
sg4
S'CLIMATIC CHANGE'
p879
sg6
S'Williams, Terry'
p880
sg8
I2013
sg9
S'Tulalip Tribes Nat Resources Off Treaty Rights, 6406 Marine Dr, Tulalip, WA 98271 USA.'
p881
sa(dp882
g2
S'Oregon University System;University of Oregon'
p883
sg4
S'CLIMATIC CHANGE'
p884
sg6
S'Lynn, Kathy'
p885
sg8
I2013
sg9
S'Univ Oregon, Adjunct Res Fac, Environm Studies Program, 5223 Univ Oregon, Eugene, OR 97403 USA.'
p886
sa(dp887
g2
S'University of Colorado Boulder;University of Colorado System'
p888
sg4
S'CLIMATIC CHANGE'
p889
sg6
S'Cozzetto, K.'
p890
sg8
I2013
sg9
S'Univ Colorado, Cooperat Inst Res Environm Sci, Boulder, CO 80309 USA.'
p891
sa(dp892
g2
S'University of Arizona'
p893
sg4
S'CLIMATIC CHANGE'
p894
sg6
S'Gautam, Mahesh R.'
p895
sg8
I2013
sg9
S'Univ Arizona, Tucson, AZ 85721 USA.'
p896
sa(dp897
g2
S'American University'
p898
sg4
S'CLIMATIC CHANGE'
p899
sg6
S'Maldonado, Julie Koppel'
p900
sg8
I2013
sg9
S'American Univ, Dept Anthropol, Washington, DC 20016 USA.'
p901
sa(dp902
g2
S'Oregon University System;University of Oregon'
p903
sg4
S'CLIMATIC CHANGE'
p904
sg6
S'Voggesser, Garrit'
p905
sg8
I2013
sg9
S'Univ Oregon, Environm Studies Program, 5223 Univ Oregon, Eugene, OR 97403 USA.'
p906
sa(dp907
g2
g37
sg4
S'CLIMATIC CHANGE'
p908
sg6
S'Dittmer, Kyle'
p909
sg8
I2013
sg9
S'Columbia River Intertribal Fish Commiss, 729 NE Oregon St Suite 200, Portland, OR 97232 USA.'
p910
sa(dp911
g2
S'Dartmouth College'
p912
sg4
S'CLIMATIC CHANGE'
p913
sg6
S'Reo, Nicholas James'
p914
sg8
I2013
sg9
S'Dartmouth Coll, Hanover, NH 03755 USA.'
p915
sa(dp916
g2
S'Virginia Polytechnic Institute & State University'
p917
sg4
S'JOURNAL OF AUTISM AND DEVELOPMENTAL DISORDERS'
p918
sg6
S'Scarpa, Angela'
p919
sg8
I2013
sg9
S'Virginia Tech, Dept Psychol, 109 Williams Hall, Blacksburg, VA 24061 USA.'
p920
sa(dp921
g2
S'Michigan State University'
p922
sg4
S'JOURNAL OF AUTISM AND DEVELOPMENTAL DISORDERS'
p923
sg6
S'Wainer, Allison L.'
p924
sg8
I2013
sg9
S'Michigan State Univ, Dept Psychol, E Lansing, MI 48824 USA.'
p925
sa(dp926
g2
g37
sg4
S'JOURNAL OF AUTISM AND DEVELOPMENTAL DISORDERS'
p927
sg6
S'Strickland, Dorothy C.'
p928
sg8
I2013
sg9
S'Virtual Real Aids Do2Learn, 3204 Churchill Rd, Raleigh, NC 27607 USA.'
p929
sa(dp930
g2
S'University of Texas Arlington'
p931
sg4
S'MATHEMATICAL BIOSCIENCES AND ENGINEERING'
p932
sg6
S'Kribs-Zaleta, Christopher M.'
p933
sg8
I2013
sg9
S'Univ Texas Arlington, Dept Math, Box 19408, Arlington, TX 76019 USA.'
p934
sa(dp935
g2
S'University of Tulsa'
p936
sg4
S'MATHEMATICAL BIOSCIENCES AND ENGINEERING'
p937
sg6
S'Shim, Eunha'
p938
sg8
I2013
sg9
S'Univ Tulsa, Dept Math, Tulsa, OK 74104 USA.'
p939
sa(dp940
g2
g37
sg4
S'POLAR RECORD'
p941
sg6
S'Petrov, Andrey N.'
p942
sg8
I2013
sg9
S'Univ No Iowa, Dept Geog, Arct Social & Environm Syst Lab, Cedar Falls, IA 50614 USA.'
p943
sa(dp944
g2
S'University of Texas Southwestern Medical Center Dallas'
p945
sg4
S'ALIMENTARY PHARMACOLOGY & THERAPEUTICS'
p946
sg6
S'Tan, D.'
p947
sg8
I2013
sg9
S'Univ Texas SW Med Ctr Dallas, Div Digest & Liver Dis, Dedman Scholar Clin Care, 5959 Harry Hines Blvd,POB 1,Suite 420, Dallas, TX 75390 USA.'
p948
sa(dp949
g2
S'Eastern Washington University'
p950
sg4
S'CHILD PSYCHIATRY & HUMAN DEVELOPMENT'
p951
sg6
S'Stellwagen, Kurt K.'
p952
sg8
I2013
sg9
S'Eastern Washington Univ, Dept Psychol, 151 Martin Hall,526 5th St, Cheney, WA 99004 USA.'
p953
sa(dp954
g2
S'State University of New York (SUNY) Stony Brook;State University of New York (SUNY) System'
p955
sg4
S'CHILD PSYCHIATRY & HUMAN DEVELOPMENT'
p956
sg6
S'Danzig, Allison P.'
p957
sg8
I2013
sg9
S'SUNY Stony Brook, Dept Psychol, Stony Brook, NY 11794 USA.'
p958
sa(dp959
g2
S'Rush University'
p960
sg4
S'JOURNAL OF BEHAVIORAL MEDICINE'
p961
sg6
S'Canada, Andrea L.'
p962
sg8
I2013
sg9
S'Rush Univ, Dept Behav Sci, Med Ctr, 1653 W Congress Pkwy, Chicago, IL 60612 USA.'
p963
sa(dp964
g2
S'Michigan State University'
p965
sg4
S'AUTISM RESEARCH'
p966
sg6
S'Berger, Natalie I.'
p967
sg8
I2013
sg9
S'Michigan State Univ, Dept Psychol, 316 Phys Rd,Room 69F, E Lansing, MI 48824 USA.'
p968
sa(dp969
g2
S'Childrens Hospital of Philadelphia;University of Pennsylvania'
p970
sg4
S'CTS-CLINICAL AND TRANSLATIONAL SCIENCE'
p971
sg6
S'Walter, Jennifer K.'
p972
sg8
I2013
sg9
S'Univ Penn, Childrens Hosp Philadelphia, Dept Pediat, Perelman Sch Med, Philadelphia, PA 19104 USA.'
p973
sa(dp974
g2
S'Mayo Clinic'
p975
sg4
S'GENETICS IN MEDICINE'
p976
sg6
S'Hazin, Ribhi'
p977
sg8
I2013
sg9
S'Mayo Clin, Div Cardiovasc Dis, Rochester, MN 55905 USA.'
p978
sa(dp979
g2
S'Pennsylvania Commonwealth System of Higher Education (PCSHE);University of Pittsburgh'
p980
sg4
S'STRESS AND HEALTH'
p981
sg6
S'Mendez, Dara D.'
p982
sg8
I2013
sg9
S'Univ Pittsburgh, Grad Sch Publ Hlth, Dept Epidemiol, 505 Parran Hall,130 De Soto St, Pittsburgh, PA 15261 USA.'
p983
sa(dp984
g2
S'University of California Los Angeles;University of California System'
p985
sg4
S'BONE'
p986
sg6
S'Karlamangla, Arun S.'
p987
sg8
I2013
sg9
S'Univ Calif Los Angeles, David Geffen Sch Med, Div Geriatr, Dept Med, 10945 Le Conte Ave,Suite 2339, Los Angeles, CA 90095 USA.'
p988
sa(dp989
g2
S'Boston University'
p990
sg4
S'ADDICTIVE BEHAVIORS'
p991
sg6
S'Strunin, Lee'
p992
sg8
I2013
sg9
S'Boston Univ, Sch Publ Hlth, Dept Community Hlth Sci, Med Campus,801 Massachusetts Ave,Rm 452, Boston, MA 02118 USA.'
p993
sa(dp994
g2
S'University of Alabama Birmingham;University of Alabama System'
p995
sg4
S'DEVIANT BEHAVIOR'
p996
sg6
S'Copes, Heith'
p997
sg8
I2013
sg9
S'Univ Alabama Birmingham, Dept Justice Sci, 1201 Univ Blvd,Suite 210, Birmingham, AL 35294 USA.'
p998
sa(dp999
g2
S'Rensselaer Polytechnic Institute'
p1000
sg4
S'SCIENTIFIC REPORTS'
p1001
sg6
S'Sreenivasan, Sameet'
p1002
sg8
I2013
sg9
S'Rensselaer Polytech Inst, Social & Cognit Networks Acad Res Ctr, 110 8th St, Troy, NY 12180 USA.'
p1003
sa(dp1004
g2
S'University of Pennsylvania'
p1005
sg4
S'PLOS ONE'
p1006
sg6
S'Schwartz, H. Andrew'
p1007
sg8
I2013
sg9
S'Univ Penn, Posit Psychol Ctr, Philadelphia, PA 19104 USA.'
p1008
sa(dp1009
g2
S'State University of New York (SUNY) Buffalo;State University of New York (SUNY) System'
p1010
sg4
S'JOURNAL OF AFFECTIVE DISORDERS'
p1011
sg6
S'Zhang, Jie'
p1012
sg8
I2013
sg9
S'SUNY Buffalo, State Dept Sociol, Buffalo, NY 14260 USA.'
p1013
sa(dp1014
g2
S'Kaiser Permanente'
p1015
sg4
S'VACCINE'
p1016
sg6
S'Hechter, Rulin C.'
p1017
sg8
I2013
sg9
S'Kaiser Permanente So Calif, Dept Res & Evaluat, 100 South Robles Ave,2nd Floor, Pasadena, CA 91101 USA.'
p1018
sa(dp1019
g2
S'Stanford University'
p1020
sg4
S'PROCEEDINGS OF THE ROYAL SOCIETY B-BIOLOGICAL SCIENCES'
p1021
sg6
S'Ehrlich, Paul R.'
p1022
sg8
I2013
sg9
S'Stanford Univ, Dept Biol, Stanford, CA 94305 USA.'
p1023
sa(dp1024
g2
S'Harvard University'
p1025
sg4
S'LANCET'
p1026
sg6
S'Kim, Jim Yong'
p1027
sg8
I2013
sg9
S'Harvard Univ, Sch Med, 641 Huntington Ave, Boston, MA 02115 USA.'
p1028
sa(dp1029
g2
S'Duke University'
p1030
sg4
S'PLOS ONE'
p1031
sg6
S'Anik, Lalin'
p1032
sg8
I2013
sg9
S'Duke Univ, Fuqua Sch Business, Dept Mkt, Durham, NC 27706 USA.'
p1033
sa(dp1034
g2
S'Carnegie Mellon University'
p1035
sg4
S'PROCEEDINGS OF THE NATIONAL ACADEMY OF SCIENCES OF THE UNITED STATES OF AMERICA'
p1036
sg6
S'Schwartz, Daniel'
p1037
sg8
I2013
sg9
S'Carnegie Mellon Univ, Dept Social & Decis Sci, Pittsburgh, PA 15213 USA.'
p1038
sa(dp1039
g2
S'Arizona State University'
p1040
sg4
S'FRONTIERS IN HUMAN NEUROSCIENCE'
p1041
sg6
S'Hruschka, Daniel J.'
p1042
sg8
I2013
sg9
S'Arizona State Univ, Sch Human Evolut & Social Change, 900 S Cady Mall,POB 872402, Tempe, AZ 85287 USA.'
p1043
sa(dp1044
g2
g37
sg4
S'NEUROLOGY'
p1045
sg6
S'Stewart, Walter F.'
p1046
sg8
I2013
sg9
S'Sutter Hlth, Concord, CA 94520 USA.'
p1047
sa(dp1048
g2
S'United States Department of Agriculture (USDA);United States Forest Service'
p1049
sg4
S'PLOS ONE'
p1050
sg6
S'Woodall, Christopher W.'
p1051
sg8
I2013
sg9
S'US Forest Serv, USDA, No Res Stn, St Paul, MN USA.'
p1052
sa(dp1053
g2
S'Arizona State University'
p1054
sg4
S'PLOS ONE'
p1055
sg6
S'Muneepeerakul, Rachata'
p1056
sg8
I2013
sg9
S'Arizona State Univ, Sch Sustainabil, Tempe, AZ 85069 USA.'
p1057
sa(dp1058
g2
S'University of North Carolina;University of North Carolina Chapel Hill'
p1059
sg4
S'PLOS ONE'
p1060
sg6
S'Albrecht, Sandra S.'
p1061
sg8
I2013
sg9
S'Univ N Carolina, Carolina Populat Ctr, Chapel Hill, NC 27515 USA.'
p1062
sa(dp1063
g2
g37
sg4
S'PLOS ONE'
p1064
sg6
S'Appleton, Allison A.'
p1065
sg8
I2013
sg9
S'Geisel Sch Med Dartmouth, Dept Community & Family Med, Hanover, NH USA.'
p1066
sa(dp1067
g2
S'George Mason University'
p1068
sg4
S'JOURNAL OF AFFECTIVE DISORDERS'
p1069
sg6
S'Kleiman, Evan M.'
p1070
sg8
I2013
sg9
S'George Mason Univ, Dept Psychol, Mail Stop 3F5, Fairfax, VA 22030 USA.'
p1071
sa(dp1072
g2
g37
sg4
S'JOURNAL OF AFFECTIVE DISORDERS'
p1073
sg6
S'Azibo, Daudi Ajani Ya'
p1074
sg8
I2013
sg9
S'Delaware State Univ, Dept Psychol, Dover, DE 19901 USA.'
p1075
sa(dp1076
g2
S'Centers for Disease Control & Prevention - USA'
p1077
sg4
S'PLOS ONE'
p1078
sg6
S'Oster, Alexandra M.'
p1079
sg8
I2013
sg9
S'Ctr Dis Control & Prevent, Div HIV AIDS Prevent, Atlanta, GA 30333 USA.'
p1080
sa(dp1081
g2
S'University of Illinois Chicago;University of Illinois Chicago Hospital;University of Illinois System'
p1082
sg4
S'JOURNAL OF NERVOUS AND MENTAL DISEASE'
p1083
sg6
S'Sarapas, Casey'
p1084
sg8
I2013
sg9
S'Univ Illinois, Dept Psychol, M-C 285,1007 W Harrison St, Chicago, IL 60607 USA.'
p1085
sa(dp1086
g2
S'Johns Hopkins University'
p1087
sg4
S'AMERICAN JOURNAL OF PUBLIC HEALTH'
p1088
sg6
S'Mojtabai, Ramin'
p1089
sg8
I2013
sg9
S'Johns Hopkins Bloomberg Sch Publ Hlth, Dept Mental Hlth, 624 N Broadway,Hampton House Room 797, Baltimore, MD 21205 USA.'
p1090
sa(dp1091
g2
S'University of Iowa'
p1092
sg4
S'AMERICAN JOURNAL OF PUBLIC HEALTH'
p1093
sg6
S'Nyarko, Kwame A.'
p1094
sg8
I2013
sg9
S'Univ Iowa, Coll Publ Hlth, Dept Hlth Management & Policy, 105 River St,N248 CPHB, Iowa City, IA 52242 USA.'
p1095
sa(dp1096
g2
S'Washington University (WUSTL)'
p1097
sg4
S'AMERICAN JOURNAL OF PUBLIC HEALTH'
p1098
sg6
S'Harris, Jenine K.'
p1099
sg8
I2013
sg9
S'Washington Univ, George Warren Brown Sch Social Work, One Brookings Dr,Campus Box 1196, St Louis, MO 63130 USA.'
p1100
sa(dp1101
g2
g37
sg4
S'CANCER JOURNAL'
p1102
sg6
S'Basu, Arnab'
p1103
sg8
I2013
sg9
S'Sinai Hosp, Alvin & Lois Lapidus Canc Inst, Palliat Care Program, 2401 W Belvedere Ave, Baltimore, MD 21215 USA.'
p1104
sa(dp1105
g2
g37
sg4
S'OBSTETRICS AND GYNECOLOGY'
p1106
sg6
S'Nasrullah, Muazzam'
p1107
sg8
I2013
sg9
S'2924 Clairmont Rd, Atlanta, GA 30329 USA.'
p1108
sa(dp1109
g2
S'Cornell University'
p1110
sg4
S'PSYCHOSOMATIC MEDICINE'
p1111
sg6
S'Evans, Gary W.'
p1112
sg8
I2013
sg9
S'Cornell Univ, Ithaca, NY 14853 USA.'
p1113
sa(dp1114
g2
S'University of Memphis'
p1115
sg4
S'AMERICAN JOURNAL OF PHYSICAL ANTHROPOLOGY'
p1116
sg6
S'Hicks, Kathryn'
p1117
sg8
I2013
sg9
S'Univ Memphis, Dept Anthropol, 316 Manning Hall, Memphis, TN 38152 USA.'
p1118
sa(dp1119
g2
S'University of Colorado Boulder;University of Colorado System'
p1120
sg4
S'SOCIOLOGICAL THEORY'
p1121
sg6
S'Reed, Isaac Ariail'
p1122
sg8
I2013
sg9
S'Univ Colorado, 327 UCB, Boulder, CO 80305 USA.'
p1123
sa(dp1124
g2
S'Yale University'
p1125
sg4
S'SOCIOLOGICAL THEORY'
p1126
sg6
S'Erikson, Emily'
p1127
sg8
I2013
sg9
S'Yale Univ, POB 208265, New Haven, CT 06520 USA.'
p1128
sa(dp1129
g2
g37
sg4
S'ETHNICITY & DISEASE'
p1130
sg6
S'Betancourt, Renee M.'
p1131
sg8
I2013
sg9
S'995 Potrero Ave,Bldg 83, San Francisco, CA 94110 USA.'
p1132
sa(dp1133
g2
S'University of Connecticut'
p1134
sg4
S'ETHNICITY & DISEASE'
p1135
sg6
S'Wagner, Julie A.'
p1136
sg8
I2013
sg9
S'Univ Connecticut, Ctr Hlth, Div Behav Sci & Community Hlth MC3910, 263 Farmington Ave, Farmington, CT 06410 USA.'
p1137
sa(dp1138
g2
S'University of Massachusetts System;University of Massachusetts Worcester'
p1139
sg4
S'ETHNICITY & DISEASE'
p1140
sg6
S'Wang, Monica L.'
p1141
sg8
I2013
sg9
S'Univ Massachusetts, Sch Med, Div Prevent & Behav Med, 55 Lake Ave North, Worcester, MA 01655 USA.'
p1142
sa(dp1143
g2
S'Stanford University'
p1144
sg4
S'ETHNICITY & DISEASE'
p1145
sg6
S'Azevedo, Kathryn J.'
p1146
sg8
I2013
sg9
S'Stanford Univ, Div Gen Pediat, Solut Sci Lab, Med Sch Off Bldg,1265 Welch Rd,X129, Stanford, CA 94305 USA.'
p1147
sa(dp1148
g2
S'West Virginia University'
p1149
sg4
S'ETHNICITY & DISEASE'
p1150
sg6
S'Parker, Lauren J.'
p1151
sg8
I2013
sg9
S'W Virginia Univ, Sch Publ Hlth Social & Behav Sci, Robert C Byrd Hlth Sci Ctr, POB 9190, Morgantown, WV 26506 USA.'
p1152
sa(dp1153
g2
S'Georgia Southern University;University System of Georgia'
p1154
sg4
S'ETHNICITY & DISEASE'
p1155
sg6
S'Rimando, Marylen'
p1156
sg8
I2013
sg9
S'Georgia So Univ, Rural Hlth Res Inst, POB 8028, Statesboro, GA 30460 USA.'
p1157
sa(dp1158
g2
S'Mount Sinai School of Medicine'
p1159
sg4
S'ETHNICITY & DISEASE'
p1160
sg6
S'Boden-Albala, Bernadette'
p1161
sg8
I2013
sg9
S'Mt Sinai Sch Med, Dept Hlth Evidence & Policy, Div Social Epidemiol, 1 Gustave L Levy Pl Box 1077, New York, NY 10029 USA.'
p1162
sa(dp1163
g2
S'New England Research Institutes'
p1164
sg4
S'ETHNICITY & DISEASE'
p1165
sg6
S'Piccolo, Rebecca S.'
p1166
sg8
I2013
sg9
S'New England Res Inst, 9 Galen St, Watertown, MA 02132 USA.'
p1167
sa(dp1168
g2
g37
sg4
S'ETHNICITY & DISEASE'
p1169
sg6
S'Korda, Holly'
p1170
sg8
I2013
sg9
S'OOB, 15 Birch Lane, Portland, ME 04064 USA.'
p1171
sa(dp1172
g2
S'University of Notre Dame'
p1173
sg4
S'AMERICAN JOURNAL OF SOCIOLOGY'
p1174
sg6
S'McDonnell, Erin Metz'
p1175
sg8
I2013
sg9
S'Univ Notre Dame, Dept Sociol, 810 Flanner Hall, Notre Dame, IN 46556 USA.'
p1176
sa(dp1177
g2
S'Wake Forest University'
p1178
sg4
S'AMERICAN JOURNAL OF SOCIOLOGY'
p1179
sg6
S'Brown, Hana E.'
p1180
sg8
I2013
sg9
S'Wake Forest Univ, Dept Sociol, POB 7808,1834 Wake Forest Rd, Winston Salem, NC 27109 USA.'
p1181
sa(dp1182
g2
S'Florida State University System;University of South Florida'
p1183
sg4
S'AMERICAN JOURNAL OF SOCIOLOGY'
p1184
sg6
S'Skvoretz, John'
p1185
sg8
I2013
sg9
S'Univ S Florida, Dept Sociol, 4202 East Fowler Ave,CPR 107, Tampa, FL 33620 USA.'
p1186
sa(dp1187
g2
S'Northwestern University'
p1188
sg4
S'JOURNAL OF COMMUNICATION DISORDERS'
p1189
sg6
S'Houghton, Kat'
p1190
sg8
I2013
sg9
S'Northwestern Univ, Dept Commun Sci & Disorders, 2240 Campus Dr, Evanston, IL 60208 USA.'
p1191
sa(dp1192
g2
S'Penn State University;Pennsylvania Commonwealth System of Higher Education (PCSHE)'
p1193
sg4
S'SOCIOLOGY OF RELIGION'
p1194
sg6
S'Finke, Roger'
p1195
sg8
I2013
sg9
S'Penn State Univ, University Pk, PA 16802 USA.'
p1196
sa(dp1197
g2
g37
sg4
S'JOURNAL OF PSYCHOACTIVE DRUGS'
p1198
sg6
S'White, William L.'
p1199
sg8
I2013
sg9
S'Chestnut Hlth Syst, 3329 Sunset Key Circle,Unit 203, Punta Gorda, FL 33955 USA.'
p1200
sa(dp1201
g2
S'Harvard University;Massachusetts General Hospital;VA Boston Healthcare System'
p1202
sg4
S'JOURNAL OF PSYCHOACTIVE DRUGS'
p1203
sg6
S'Psaros, Christina'
p1204
sg8
I2013
sg9
S'Massachusetts Gen Hosp, Behav Med Serv, 1 Bowdoin Sq,7th Floor, Boston, MA 02114 USA.'
p1205
sa(dp1206
g2
S'Florida State University;Florida State University System'
p1207
sg4
S'SOCIOLOGY OF SPORT JOURNAL'
p1208
sg6
S'Giardina, Michael D.'
p1209
sg8
I2013
sg9
S'Florida State Univ, Dept Sport Management, Tallahassee, FL 32306 USA.'
p1210
sa(dp1211
g2
S'Towson University;University System of Maryland'
p1212
sg4
S'SOCIOLOGY OF SPORT JOURNAL'
p1213
sg6
S'King-White, Ryan'
p1214
sg8
I2013
sg9
S'Towson Univ, Dept Kinesiol, Towson, MD 21252 USA.'
p1215
sa(dp1216
g2
S'University of California Los Angeles;University of California System'
p1217
sg4
S'EVOLUTIONARY ANTHROPOLOGY'
p1218
sg6
S'Scelza, Brooke A.'
p1219
sg8
I2013
sg9
S'Univ Calif Los Angeles, Dept Anthropol, Los Angeles, CA 90024 USA.'
p1220
sa(dp1221
g2
g37
sg4
S'SOCIOLOGICAL QUARTERLY'
p1222
sg6
S'Fischer, Nancy L.'
p1223
sg8
I2013
sg9
S'Augsburg Coll, Dept Sociol, CB116,2211 Riverside Ave S, Minneapolis, MN 55454 USA.'
p1224
sa(dp1225
g2
S'NIH National Institute on Minority Health & Health Disparities (NIMHD);National Institutes of Health (NIH) - USA'
p1226
sg4
S'JAMA OPHTHALMOLOGY'
p1227
sg6
S'Zhang, Xinzhi'
p1228
sg8
I2013
sg9
S'Natl Inst Minor Hlth & Hlth Dispar, Div Data Management & Sci Reporting, NIH, 6707 Democracy Blvd,Ste 800, Bethesda, MD 20892 USA.'
p1229
sa(dp1230
g2
S'Washington University (WUSTL)'
p1231
sg4
S'NATURE COMMUNICATIONS'
p1232
sg6
S'Brock, Debra A.'
p1233
sg8
I2013
sg9
S'Washington Univ, Dept Biol, St Louis, MO 63130 USA.'
p1234
sa(dp1235
g2
g37
sg4
S'JOURNAL OF SURGICAL RESEARCH'
p1236
sg6
S'Barthel, Erik R.'
p1237
sg8
I2013
sg9
S'Childrens Hosp Los Angeles, Div Pediat Surg, 4650 Sunset Blvd,Mailstop 100, Los Angeles, CA 90027 USA.'
p1238
sa(dp1239
g2
S'Johns Hopkins University'
p1240
sg4
S'JOURNAL OF SURGICAL RESEARCH'
p1241
sg6
S'Scott, Valerie K.'
p1242
sg8
I2013
sg9
S'Johns Hopkins Sch Med, Ctr Surg Trials & Outcomes Res, Dept Surg, 1800 N Orleans St,Zayed 6107, Baltimore, MD 21287 USA.'
p1243
sa(dp1244
g2
S'NIH Eunice Kennedy Shriver National Institute of Child Health & Human Development (NICHD);National Institutes of Health (NIH) - USA'
p1245
sg4
S'SEMINARS IN REPRODUCTIVE MEDICINE'
p1246
sg6
S'Owen, Carter M.'
p1247
sg8
I2013
sg9
S'Eunice Kennedy Shriver Natl Inst Child Hlth & Hum, Program Reprod & Adult Endocrinol, CRC, Bldg 10,Room E1-3140,10 Ctr Dr, Bethesda, MD 20892 USA.'
p1248
sa(dp1249
g2
S'NIH Eunice Kennedy Shriver National Institute of Child Health & Human Development (NICHD);National Institutes of Health (NIH) - USA'
p1250
sg4
S'SEMINARS IN REPRODUCTIVE MEDICINE'
p1251
sg6
S'Ramnitz, Mary Scott'
p1252
sg8
I2013
sg9
S'Eunice Kennedy Shriver Natl Inst Child Hlth & Hum, NIH, CRC, Room 1-3330,10 Ctr Dr,MSC 1103, Bethesda, MD 20892 USA.'
p1253
sa(dp1254
g2
g37
sg4
S'SEMINARS IN REPRODUCTIVE MEDICINE'
p1255
sg6
S'Plowden, Torie C.'
p1256
sg8
I2013
sg9
S'Bayne Jones Army Community Hosp, Dept Obstet & Gynecol, 1585 3rd St, Ft Polk, LA 71459 USA.'
p1257
sa(dp1258
g2
g37
sg4
S'SEMINARS IN REPRODUCTIVE MEDICINE'
p1259
sg6
S'Casey, Frances'
p1260
sg8
I2013
sg9
S'Medstar Washington Hosp Ctr, 110 Irving St,Rm 5B41, Washington, DC 20010 USA.'
p1261
sa(dp1262
g2
g37
sg4
S'SEMINARS IN REPRODUCTIVE MEDICINE'
p1263
sg6
S'Spitzer, Trimble'
p1264
sg8
I2013
sg9
S'NMCP, Womens Hlth Clin, 620 John Paul Jones Cir,4th Floor, Portsmouth, VA 23708 USA.'
p1265
sa(dp1266
g2
g37
sg4
S'SEMINARS IN REPRODUCTIVE MEDICINE'
p1267
sg6
S'Wang, Shunping'
p1268
sg8
I2013
sg9
S'12631 East 17th Ave,Suite 4517, Aurora, CO 80045 USA.'
p1269
sa(dp1270
g2
g37
sg4
S'SEMINARS IN REPRODUCTIVE MEDICINE'
p1271
sg6
S'Catherino, William H.'
p1272
sg8
I2013
sg9
S'Meharry Med Coll, Ctr Womens Hlth Res, Dept Obstet & Gynecol, 1005 Dr DB Todd Jr Blvd, Nashville, TN 37208 USA.'
p1273
sa(dp1274
g2
S'University of Arkansas Medical Sciences;University of Arkansas System'
p1275
sg4
S'SEMINARS IN REPRODUCTIVE MEDICINE'
p1276
sg6
S'Richard-Davis, Gloria'
p1277
sg8
I2013
sg9
S'Univ Arkansas Med Sci, Div Reprod Endocrinol & Infertil, Dept Obstet & Gynecol, 4301 W Markham St 518, Little Rock, AR 72205 USA.'
p1278
sa(dp1279
g2
S'University of Pennsylvania'
p1280
sg4
S'BIOSOCIETIES'
p1281
sg6
S'Johnson, Andi'
p1282
sg8
I2013
sg9
S'Univ Penn, Hlth & Soc Program, Dept Hist & Sociol Sci, 303 Claudia Cohen Hall,249 S 36th St, Philadelphia, PA 19104 USA.'
p1283
sa(dp1284
g2
S'Yale University'
p1285
sg4
S'DRUG AND ALCOHOL DEPENDENCE'
p1286
sg6
S'DeMartini, Kelly S.'
p1287
sg8
I2013
sg9
S'Yale Univ, Sch Med, Dept Psychiat, Div Subst Abuse, 1 Long Wharf Dr,Box 18 SATU, New Haven, CT 06511 USA.'
p1288
sa(dp1289
g2
S'Indiana University System;Indiana University-Purdue University Indianapolis'
p1290
sg4
S'PEDIATRIC ALLERGY IMMUNOLOGY AND PULMONOLOGY'
p1291
sg6
S'Anand, Vibha'
p1292
sg8
I2013
sg9
S'Indiana Univ Sch Med, Childrens Hlth Serv Res, 410 West 10th St,HS 1020, Indianapolis, IN 46202 USA.'
p1293
sa(dp1294
g2
S'Stanford University'
p1295
sg4
S'THEORETICAL POPULATION BIOLOGY'
p1296
sg6
S'Fogarty, L.'
p1297
sg8
I2013
sg9
S'Stanford Univ, Dept Biol Sci, Stanford, CA 94305 USA.'
p1298
sa(dp1299
g2
S'University of Washington;University of Washington Seattle'
p1300
sg4
S'AMERICAN JOURNAL OF INDUSTRIAL MEDICINE'
p1301
sg6
S'Tsai, Jenny Hsin-Chun'
p1302
sg8
I2013
sg9
S'Univ Washington, Sch Nursing, Dept Psychosocial & Community Hlth, Box 357263, Seattle, WA 98195 USA.'
p1303
sa(dp1304
g2
S'University of Minnesota System;University of Minnesota Twin Cities'
p1305
sg4
S'BIOMASS & BIOENERGY'
p1306
sg6
S'Becker, Dennis R.'
p1307
sg8
I2013
sg9
S'Univ Minnesota, Dept Forest Resources, 1530 Cleveland Ave North,115 Green Hall, St Paul, MN 55108 USA.'
p1308
sa(dp1309
g2
S'Coastal Carolina University'
p1310
sg4
S'CURRENT PSYCHOLOGY'
p1311
sg6
S'Pettijohn, Terry F., II'
p1312
sg8
I2013
sg9
S'Coastal Carolina Univ, Dept Psychol, POB 261954, Conway, SC 29528 USA.'
p1313
sa(dp1314
g2
S'Stanford University'
p1315
sg4
S'CURRENT PSYCHOLOGY'
p1316
sg6
S'Zimbardo, Philip G.'
p1317
sg8
I2013
sg9
S'Stanford Univ, Stanford, CA 94305 USA.'
p1318
sa(dp1319
g2
S'Emory University'
p1320
sg4
S'GENETICS IN MEDICINE'
p1321
sg6
S'Hunter, Jessica Ezzell'
p1322
sg8
I2013
sg9
S'Emory Univ, Sch Med, Dept Human Genet, Atlanta, GA 30322 USA.'
p1323
sa(dp1324
g2
S'Harvard University'
p1325
sg4
S'JOURNAL OF PEDIATRICS'
p1326
sg6
S'McCarthy, Claire'
p1327
sg8
I2013
sg9
S'Boston Childrens Hosp, Boston, MA USA.'
p1328
sa(dp1329
g2
S'University of Michigan;University of Michigan System'
p1330
sg4
S'QUALITATIVE SOCIOLOGY'
p1331
sg6
S'Rose-Greenland, Fiona'
p1332
sg8
I2013
sg9
S'Univ Michigan, Dept Sociol, 500 South State St, Ann Arbor, MI 48109 USA.'
p1333
sa(dp1334
g2
S'University of California Los Angeles;University of California System'
p1335
sg4
S'SURGERY'
p1336
sg6
S'Nguyen, David K.'
p1337
sg8
I2013
sg9
S'Univ Calif Los Angeles, David Geffen Sch Med, Ctr Hlth Sci, Dept Surg, Room 72-215,10833 Le Conte Ave, Los Angeles, CA 90095 USA.'
p1338
sa(dp1339
g2
S'Johns Hopkins University'
p1340
sg4
S'SURGERY'
p1341
sg6
S'Ali, Mays T.'
p1342
sg8
I2013
sg9
S'Johns Hopkins Univ, Sch Med, Ctr Surg Trials & Outcomes Res, Dept Surg, 1800 Orleans St,Zayed 6107, Baltimore, MD 21287 USA.'
p1343
sa(dp1344
g2
S'University of Kentucky'
p1345
sg4
S'BEHAVIOR GENETICS'
p1346
sg6
S'Perry, Brea L.'
p1347
sg8
I2013
sg9
S'Univ Kentucky, Dept Sociol, 1515 Patterson Off Tower, Lexington, KY 40506 USA.'
p1348
sa(dp1349
g2
S'Emory University'
p1350
sg4
S'CANCER'
p1351
sg6
S'Wang, Daniel S.'
p1352
sg8
I2013
sg9
S'Emory Univ, Dept Urol, 1365 Clifton Rd NE,Bldg B,Suite 1400, Atlanta, GA 30322 USA.'
p1353
sa(dp1354
g2
g37
sg4
S'EARLY HUMAN DEVELOPMENT'
p1355
sg6
S'Wild, Katherine T.'
p1356
sg8
I2013
sg9
S'3535 Market St,14th Floor,Room 1433, Philadelphia, PA 19104 USA.'
p1357
sa(dp1358
g2
S'Florida International University;Florida State University System'
p1359
sg4
S'FRONTIERS IN ECOLOGY AND THE ENVIRONMENT'
p1360
sg6
S'Ogden, Laura'
p1361
sg8
I2013
sg9
S'Florida Int Univ, Dept Global & Sociocultural Studies, Miami, FL 33199 USA.'
p1362
sa(dp1363
g2
S'University of California Berkeley;University of California System'
p1364
sg4
S'FRONTIERS IN ECOLOGY AND THE ENVIRONMENT'
p1365
sg6
S'Sayre, Nathan F.'
p1366
sg8
I2013
sg9
S'Univ Calif Berkeley, Dept Geog, Berkeley, CA 94720 USA.'
p1367
sa(dp1368
g2
S'University of North Carolina;University of North Carolina Chapel Hill'
p1369
sg4
S'JOURNAL OF STUDIES ON ALCOHOL AND DRUGS'
p1370
sg6
S'Ennett, Susan T.'
p1371
sg8
I2013
sg9
S'Univ N Carolina, Dept Hlth Behav, CB 7440,358A Rosenau Hall, Chapel Hill, NC 27599 USA.'
p1372
sa(dp1373
g2
S'Louisiana State University;Louisiana State University System'
p1374
sg4
S'JOURNAL OF STUDIES ON ALCOHOL AND DRUGS'
p1375
sg6
S'Buckner, Julia D.'
p1376
sg8
I2013
sg9
S'Louisiana State Univ, Dept Psychol, 236 Audubon Hall, Baton Rouge, LA 70803 USA.'
p1377
sa(dp1378
g2
g37
sg4
S'TECHNOLOGY REVIEW'
p1379
sg6
S'Arieff, Allison'
p1380
sg8
I2013
sg9
S'SPUR, San Francisco, CA USA.'
p1381
sa(dp1382
g2
S'Harvard University;Massachusetts General Hospital;VA Boston Healthcare System'
p1383
sg4
S'AIDS CARE-PSYCHOLOGICAL AND SOCIO-MEDICAL ASPECTS OF AIDS/HIV'
p1384
sg6
S'Mimiaga, Matthew J.'
p1385
sg8
I2013
sg9
S'Harvard Univ, Sch Med, Dept Psychiat, Massachusetts Gen Hosp, Boston, MA 02115 USA.'
p1386
sa(dp1387
g2
S'University of Illinois Chicago;University of Illinois Chicago Hospital;University of Illinois System'
p1388
sg4
S'AIDS CARE-PSYCHOLOGICAL AND SOCIO-MEDICAL ASPECTS OF AIDS/HIV'
p1389
sg6
S'Gaston, Gina B.'
p1390
sg8
I2013
sg9
S'Univ Illinois, Jane Addams Coll Social Work, Chicago, IL 60680 USA.'
p1391
sa(dp1392
g2
S'University of California Los Angeles;University of California System'
p1393
sg4
S'AIDS CARE-PSYCHOLOGICAL AND SOCIO-MEDICAL ASPECTS OF AIDS/HIV'
p1394
sg6
S'Huynh, Alexis K.'
p1395
sg8
I2013
sg9
S'Univ Calif Los Angeles, David Geffen Sch Med, Div Gen Internal Med & Hlth Serv Res, Los Angeles, CA 90095 USA.'
p1396
sa(dp1397
g2
S'University of North Carolina;University of North Carolina Chapel Hill'
p1398
sg4
S'HEAD AND NECK-JOURNAL FOR THE SCIENCES AND SPECIALTIES OF THE HEAD AND NECK'
p1399
sg6
S'Reeve, Bryce B.'
p1400
sg8
I2013
sg9
S'Univ N Carolina, 1101-D McGavran Greenberg Bldg,135 Dauer Dr,CB 74, Chapel Hill, NC 27599 USA.'
p1401
sa(dp1402
g2
S'Penn State University;Pennsylvania Commonwealth System of Higher Education (PCSHE)'
p1403
sg4
S'PAIN'
p1404
sg6
S'Martire, Lynn M.'
p1405
sg8
I2013
sg9
S'Penn State Univ, Dept Human Dev & Family Studies, 422 Biobehav Hlth Bldg, University Pk, PA 16802 USA.'
p1406
sa(dp1407
g2
S'Iowa State University'
p1408
sg4
S'AGRICULTURE AND HUMAN VALUES'
p1409
sg6
S'Bain, Carmen'
p1410
sg8
I2013
sg9
S'Iowa State Univ, Dept Sociol, 308 East Hall, Ames, IA 50011 USA.'
p1411
sa(dp1412
g2
S'Texas Tech University;Texas Tech University System'
p1413
sg4
S'INTERNATIONAL SOCIOLOGY'
p1414
sg6
S'Bradatan, Cristina'
p1415
sg8
I2013
sg9
S'Texas Tech Univ, Mail Stop 1012,Holden Hall 158, Lubbock, TX 79401 USA.'
p1416
sa(dp1417
g2
S'University of California Santa Barbara;University of California System'
p1418
sg4
S'JOURNAL OF AUTISM AND DEVELOPMENTAL DISORDERS'
p1419
sg6
S'Doggett, Rebecca A.'
p1420
sg8
I2013
sg9
S'Univ Calif Santa Barbara, Counseling Clin & Sch Psychol Dept, Santa Barbara, CA 93106 USA.'
p1421
sa(dp1422
g2
S'University of California Santa Barbara;University of California System'
p1423
sg4
S'JOURNAL OF AUTISM AND DEVELOPMENTAL DISORDERS'
p1424
sg6
S'Koegel, Robert'
p1425
sg8
I2013
sg9
S'Univ Calif Santa Barbara, Grad Sch Educ, Koegel Autism Ctr, Santa Barbara, CA 93106 USA.'
p1426
sa(dp1427
g2
S'College William & Mary'
p1428
sg4
S'JOURNAL OF AUTISM AND DEVELOPMENTAL DISORDERS'
p1429
sg6
S'Ward, Sandra C.'
p1430
sg8
I2013
sg9
S'Coll William & Mary, Sch Educ, 301 Monticello Ave, Williamsburg, VA 23185 USA.'
p1431
sa.